
kernel.bin:     file format elf32-i386


Disassembly of section .boot.text:

0010000c <_start_early>:
  10000c:	fa                   	cli    
  10000d:	bc 10 b8 10 80       	mov    $0x8010b810,%esp
  100012:	53                   	push   %ebx
  100013:	e8 2a 00 00 00       	call   100042 <setup_paging_early>
  100018:	5b                   	pop    %ebx
  100019:	b8 00 b0 11 80       	mov    $0x8011b000,%eax
  10001e:	0f 22 d8             	mov    %eax,%cr3
  100021:	0f 20 e0             	mov    %cr4,%eax
  100024:	83 c8 10             	or     $0x10,%eax
  100027:	0f 22 e0             	mov    %eax,%cr4
  10002a:	0f 20 c0             	mov    %cr0,%eax
  10002d:	0d 00 00 00 80       	or     $0x80000000,%eax
  100032:	0f 22 c0             	mov    %eax,%cr0
  100035:	89 1d 30 b8 10 80    	mov    %ebx,0x8010b830
  10003b:	b8 03 11 10 80       	mov    $0x80101103,%eax
  100040:	ff e0                	jmp    *%eax

00100042 <setup_paging_early>:
  100042:	55                   	push   %ebp
  100043:	89 e5                	mov    %esp,%ebp
  100045:	83 ec 08             	sub    $0x8,%esp
  100048:	c7 05 00 b0 11 80 83 	movl   $0x83,0x8011b000
  10004f:	00 00 00 
  100052:	b8 00 00 00 80       	mov    $0x80000000,%eax
  100057:	c1 e8 16             	shr    $0x16,%eax
  10005a:	c7 04 85 00 b0 11 80 	movl   $0x83,-0x7fee5000(,%eax,4)
  100061:	83 00 00 00 
  100065:	83 ec 0c             	sub    $0xc,%esp
  100068:	68 00 10 52 80       	push   $0x80521000
  10006d:	e8 99 36 00 80       	call   8010370b <virt2phys>
  100072:	83 c4 10             	add    $0x10,%esp
  100075:	25 00 00 c0 ff       	and    $0xffc00000,%eax
  10007a:	89 c2                	mov    %eax,%edx
  10007c:	b8 00 10 52 80       	mov    $0x80521000,%eax
  100081:	c1 e8 16             	shr    $0x16,%eax
  100084:	80 ca 83             	or     $0x83,%dl
  100087:	89 14 85 00 b0 11 80 	mov    %edx,-0x7fee5000(,%eax,4)
  10008e:	90                   	nop
  10008f:	c9                   	leave  
  100090:	c3                   	ret    

Disassembly of section .text:

80101000 <idt_register>:
80101000:	55                   	push   %ebp
80101001:	89 e5                	mov    %esp,%ebp
80101003:	83 ec 0c             	sub    $0xc,%esp
80101006:	8b 4d 08             	mov    0x8(%ebp),%ecx
80101009:	8b 45 10             	mov    0x10(%ebp),%eax
8010100c:	8b 55 14             	mov    0x14(%ebp),%edx
8010100f:	88 4d fc             	mov    %cl,-0x4(%ebp)
80101012:	66 89 45 f8          	mov    %ax,-0x8(%ebp)
80101016:	89 d0                	mov    %edx,%eax
80101018:	88 45 f4             	mov    %al,-0xc(%ebp)
8010101b:	0f b6 45 fc          	movzbl -0x4(%ebp),%eax
8010101f:	8b 55 0c             	mov    0xc(%ebp),%edx
80101022:	66 89 14 c5 00 70 10 	mov    %dx,-0x7fef9000(,%eax,8)
80101029:	80 
8010102a:	8b 45 0c             	mov    0xc(%ebp),%eax
8010102d:	c1 e8 10             	shr    $0x10,%eax
80101030:	89 c2                	mov    %eax,%edx
80101032:	0f b6 45 fc          	movzbl -0x4(%ebp),%eax
80101036:	66 89 14 c5 06 70 10 	mov    %dx,-0x7fef8ffa(,%eax,8)
8010103d:	80 
8010103e:	0f b6 45 fc          	movzbl -0x4(%ebp),%eax
80101042:	0f b7 55 f8          	movzwl -0x8(%ebp),%edx
80101046:	66 89 14 c5 02 70 10 	mov    %dx,-0x7fef8ffe(,%eax,8)
8010104d:	80 
8010104e:	0f b6 45 fc          	movzbl -0x4(%ebp),%eax
80101052:	c6 04 c5 04 70 10 80 	movb   $0x0,-0x7fef8ffc(,%eax,8)
80101059:	00 
8010105a:	0f b6 45 fc          	movzbl -0x4(%ebp),%eax
8010105e:	0f b6 55 f4          	movzbl -0xc(%ebp),%edx
80101062:	88 14 c5 05 70 10 80 	mov    %dl,-0x7fef8ffb(,%eax,8)
80101069:	90                   	nop
8010106a:	c9                   	leave  
8010106b:	c3                   	ret    

8010106c <init_idt>:
8010106c:	55                   	push   %ebp
8010106d:	89 e5                	mov    %esp,%ebp
8010106f:	66 c7 05 00 78 10 80 	movw   $0x7ff,0x80107800
80101076:	ff 07 
80101078:	b8 00 70 10 80       	mov    $0x80107000,%eax
8010107d:	a3 02 78 10 80       	mov    %eax,0x80107802
80101082:	b8 fd 4e 10 80       	mov    $0x80104efd,%eax
80101087:	68 8e 00 00 00       	push   $0x8e
8010108c:	6a 08                	push   $0x8
8010108e:	50                   	push   %eax
8010108f:	6a 0e                	push   $0xe
80101091:	e8 6a ff ff ff       	call   80101000 <idt_register>
80101096:	83 c4 10             	add    $0x10,%esp
80101099:	b8 09 4e 10 80       	mov    $0x80104e09,%eax
8010109e:	68 8e 00 00 00       	push   $0x8e
801010a3:	6a 08                	push   $0x8
801010a5:	50                   	push   %eax
801010a6:	6a 20                	push   $0x20
801010a8:	e8 53 ff ff ff       	call   80101000 <idt_register>
801010ad:	83 c4 10             	add    $0x10,%esp
801010b0:	b8 83 4e 10 80       	mov    $0x80104e83,%eax
801010b5:	68 8e 00 00 00       	push   $0x8e
801010ba:	6a 08                	push   $0x8
801010bc:	50                   	push   %eax
801010bd:	6a 27                	push   $0x27
801010bf:	e8 3c ff ff ff       	call   80101000 <idt_register>
801010c4:	83 c4 10             	add    $0x10,%esp
801010c7:	b8 46 4e 10 80       	mov    $0x80104e46,%eax
801010cc:	68 8e 00 00 00       	push   $0x8e
801010d1:	6a 08                	push   $0x8
801010d3:	50                   	push   %eax
801010d4:	6a 28                	push   $0x28
801010d6:	e8 25 ff ff ff       	call   80101000 <idt_register>
801010db:	83 c4 10             	add    $0x10,%esp
801010de:	b8 c0 4e 10 80       	mov    $0x80104ec0,%eax
801010e3:	68 ef 00 00 00       	push   $0xef
801010e8:	6a 08                	push   $0x8
801010ea:	50                   	push   %eax
801010eb:	68 80 00 00 00       	push   $0x80
801010f0:	e8 0b ff ff ff       	call   80101000 <idt_register>
801010f5:	83 c4 10             	add    $0x10,%esp
801010f8:	b8 00 78 10 80       	mov    $0x80107800,%eax
801010fd:	0f 01 18             	lidtl  (%eax)
80101100:	90                   	nop
80101101:	c9                   	leave  
80101102:	c3                   	ret    

80101103 <kernel_main>:
80101103:	55                   	push   %ebp
80101104:	89 e5                	mov    %esp,%ebp
80101106:	83 ec 18             	sub    $0x18,%esp
80101109:	e8 df 22 00 00       	call   801033ed <init_gdt>
8010110e:	e8 59 ff ff ff       	call   8010106c <init_idt>
80101113:	e8 74 01 00 00       	call   8010128c <terminal_initialize>
80101118:	e8 93 23 00 00       	call   801034b0 <detect_memory>
8010111d:	e8 07 26 00 00       	call   80103729 <init_kalloc_early>
80101122:	e8 c6 2b 00 00       	call   80103ced <init_kernel_paging>
80101127:	e8 b1 18 00 00       	call   801029dd <acpi_find_rsdt>
8010112c:	89 45 f4             	mov    %eax,-0xc(%ebp)
8010112f:	83 7d f4 00          	cmpl   $0x0,-0xc(%ebp)
80101133:	75 10                	jne    80101145 <kernel_main+0x42>
80101135:	83 ec 0c             	sub    $0xc,%esp
80101138:	68 93 51 10 80       	push   $0x80105193
8010113d:	e8 5f 16 00 00       	call   801027a1 <panic>
80101142:	83 c4 10             	add    $0x10,%esp
80101145:	83 ec 0c             	sub    $0xc,%esp
80101148:	ff 75 f4             	pushl  -0xc(%ebp)
8010114b:	e8 ec 13 00 00       	call   8010253c <apic_init>
80101150:	83 c4 10             	add    $0x10,%esp
80101153:	83 ec 0c             	sub    $0xc,%esp
80101156:	6a 03                	push   $0x3
80101158:	e8 9e 00 00 00       	call   801011fb <set_color>
8010115d:	83 c4 10             	add    $0x10,%esp
80101160:	83 ec 0c             	sub    $0xc,%esp
80101163:	68 00 50 10 80       	push   $0x80105000
80101168:	e8 c4 10 00 00       	call   80102231 <printf_>
8010116d:	83 c4 10             	add    $0x10,%esp
80101170:	83 ec 0c             	sub    $0xc,%esp
80101173:	6a 04                	push   $0x4
80101175:	e8 81 00 00 00       	call   801011fb <set_color>
8010117a:	83 c4 10             	add    $0x10,%esp
8010117d:	83 ec 0c             	sub    $0xc,%esp
80101180:	68 40 50 10 80       	push   $0x80105040
80101185:	e8 a7 10 00 00       	call   80102231 <printf_>
8010118a:	83 c4 10             	add    $0x10,%esp
8010118d:	83 ec 0c             	sub    $0xc,%esp
80101190:	6a 0f                	push   $0xf
80101192:	e8 64 00 00 00       	call   801011fb <set_color>
80101197:	83 c4 10             	add    $0x10,%esp
8010119a:	e8 48 35 00 00       	call   801046e7 <scheduler_start>
8010119f:	83 ec 0c             	sub    $0xc,%esp
801011a2:	68 a4 51 10 80       	push   $0x801051a4
801011a7:	e8 f5 15 00 00       	call   801027a1 <panic>
801011ac:	83 c4 10             	add    $0x10,%esp
801011af:	90                   	nop
801011b0:	c9                   	leave  
801011b1:	c3                   	ret    

801011b2 <minus_vga_height>:
801011b2:	55                   	push   %ebp
801011b3:	89 e5                	mov    %esp,%ebp
801011b5:	83 6d 08 19          	subl   $0x19,0x8(%ebp)
801011b9:	83 7d 08 00          	cmpl   $0x0,0x8(%ebp)
801011bd:	79 04                	jns    801011c3 <minus_vga_height+0x11>
801011bf:	83 45 08 7d          	addl   $0x7d,0x8(%ebp)
801011c3:	8b 45 08             	mov    0x8(%ebp),%eax
801011c6:	5d                   	pop    %ebp
801011c7:	c3                   	ret    

801011c8 <vga_entry_color>:
801011c8:	55                   	push   %ebp
801011c9:	89 e5                	mov    %esp,%ebp
801011cb:	8b 45 0c             	mov    0xc(%ebp),%eax
801011ce:	c1 e0 04             	shl    $0x4,%eax
801011d1:	89 c2                	mov    %eax,%edx
801011d3:	8b 45 08             	mov    0x8(%ebp),%eax
801011d6:	09 d0                	or     %edx,%eax
801011d8:	5d                   	pop    %ebp
801011d9:	c3                   	ret    

801011da <vga_entry>:
801011da:	55                   	push   %ebp
801011db:	89 e5                	mov    %esp,%ebp
801011dd:	83 ec 08             	sub    $0x8,%esp
801011e0:	8b 55 08             	mov    0x8(%ebp),%edx
801011e3:	8b 45 0c             	mov    0xc(%ebp),%eax
801011e6:	88 55 fc             	mov    %dl,-0x4(%ebp)
801011e9:	88 45 f8             	mov    %al,-0x8(%ebp)
801011ec:	0f b6 55 fc          	movzbl -0x4(%ebp),%edx
801011f0:	0f b6 45 f8          	movzbl -0x8(%ebp),%eax
801011f4:	c1 e0 08             	shl    $0x8,%eax
801011f7:	09 d0                	or     %edx,%eax
801011f9:	c9                   	leave  
801011fa:	c3                   	ret    

801011fb <set_color>:
801011fb:	55                   	push   %ebp
801011fc:	89 e5                	mov    %esp,%ebp
801011fe:	83 ec 04             	sub    $0x4,%esp
80101201:	8b 45 08             	mov    0x8(%ebp),%eax
80101204:	88 45 fc             	mov    %al,-0x4(%ebp)
80101207:	0f b6 45 fc          	movzbl -0x4(%ebp),%eax
8010120b:	a3 00 60 10 80       	mov    %eax,0x80106000
80101210:	90                   	nop
80101211:	c9                   	leave  
80101212:	c3                   	ret    

80101213 <sync_with_scroll_buffer>:
80101213:	55                   	push   %ebp
80101214:	89 e5                	mov    %esp,%ebp
80101216:	83 ec 18             	sub    $0x18,%esp
80101219:	c7 45 f4 00 00 00 00 	movl   $0x0,-0xc(%ebp)
80101220:	eb 60                	jmp    80101282 <sync_with_scroll_buffer+0x6f>
80101222:	8b 0d 64 b8 10 80    	mov    0x8010b864,%ecx
80101228:	8b 55 f4             	mov    -0xc(%ebp),%edx
8010122b:	89 d0                	mov    %edx,%eax
8010122d:	c1 e0 02             	shl    $0x2,%eax
80101230:	01 d0                	add    %edx,%eax
80101232:	c1 e0 05             	shl    $0x5,%eax
80101235:	01 c8                	add    %ecx,%eax
80101237:	89 45 f0             	mov    %eax,-0x10(%ebp)
8010123a:	8b 55 f4             	mov    -0xc(%ebp),%edx
8010123d:	8b 45 08             	mov    0x8(%ebp),%eax
80101240:	8d 0c 02             	lea    (%edx,%eax,1),%ecx
80101243:	ba d3 4d 62 10       	mov    $0x10624dd3,%edx
80101248:	89 c8                	mov    %ecx,%eax
8010124a:	f7 e2                	mul    %edx
8010124c:	c1 ea 03             	shr    $0x3,%edx
8010124f:	6b c2 7d             	imul   $0x7d,%edx,%eax
80101252:	29 c1                	sub    %eax,%ecx
80101254:	89 ca                	mov    %ecx,%edx
80101256:	89 d0                	mov    %edx,%eax
80101258:	c1 e0 02             	shl    $0x2,%eax
8010125b:	01 d0                	add    %edx,%eax
8010125d:	c1 e0 05             	shl    $0x5,%eax
80101260:	05 80 b8 10 80       	add    $0x8010b880,%eax
80101265:	89 45 ec             	mov    %eax,-0x14(%ebp)
80101268:	83 ec 04             	sub    $0x4,%esp
8010126b:	68 a0 00 00 00       	push   $0xa0
80101270:	ff 75 ec             	pushl  -0x14(%ebp)
80101273:	ff 75 f0             	pushl  -0x10(%ebp)
80101276:	e8 61 19 00 00       	call   80102bdc <memmove>
8010127b:	83 c4 10             	add    $0x10,%esp
8010127e:	83 45 f4 01          	addl   $0x1,-0xc(%ebp)
80101282:	83 7d f4 18          	cmpl   $0x18,-0xc(%ebp)
80101286:	7e 9a                	jle    80101222 <sync_with_scroll_buffer+0xf>
80101288:	90                   	nop
80101289:	90                   	nop
8010128a:	c9                   	leave  
8010128b:	c3                   	ret    

8010128c <terminal_initialize>:
8010128c:	55                   	push   %ebp
8010128d:	89 e5                	mov    %esp,%ebp
8010128f:	83 ec 18             	sub    $0x18,%esp
80101292:	c7 05 60 b8 10 80 00 	movl   $0x0,0x8010b860
80101299:	00 00 00 
8010129c:	6a 00                	push   $0x0
8010129e:	6a 07                	push   $0x7
801012a0:	e8 23 ff ff ff       	call   801011c8 <vga_entry_color>
801012a5:	83 c4 08             	add    $0x8,%esp
801012a8:	88 45 ef             	mov    %al,-0x11(%ebp)
801012ab:	83 ec 0c             	sub    $0xc,%esp
801012ae:	68 00 80 0b 00       	push   $0xb8000
801012b3:	e8 62 24 00 00       	call   8010371a <phys2virt>
801012b8:	83 c4 10             	add    $0x10,%esp
801012bb:	a3 64 b8 10 80       	mov    %eax,0x8010b864
801012c0:	c7 45 f4 00 00 00 00 	movl   $0x0,-0xc(%ebp)
801012c7:	eb 45                	jmp    8010130e <terminal_initialize+0x82>
801012c9:	c7 45 f0 00 00 00 00 	movl   $0x0,-0x10(%ebp)
801012d0:	eb 32                	jmp    80101304 <terminal_initialize+0x78>
801012d2:	0f b6 45 ef          	movzbl -0x11(%ebp),%eax
801012d6:	83 ec 08             	sub    $0x8,%esp
801012d9:	50                   	push   %eax
801012da:	6a 20                	push   $0x20
801012dc:	e8 f9 fe ff ff       	call   801011da <vga_entry>
801012e1:	83 c4 10             	add    $0x10,%esp
801012e4:	89 c2                	mov    %eax,%edx
801012e6:	8b 4d f4             	mov    -0xc(%ebp),%ecx
801012e9:	89 c8                	mov    %ecx,%eax
801012eb:	c1 e0 02             	shl    $0x2,%eax
801012ee:	01 c8                	add    %ecx,%eax
801012f0:	c1 e0 04             	shl    $0x4,%eax
801012f3:	8b 4d f0             	mov    -0x10(%ebp),%ecx
801012f6:	01 c8                	add    %ecx,%eax
801012f8:	66 89 94 00 80 b8 10 	mov    %dx,-0x7fef4780(%eax,%eax,1)
801012ff:	80 
80101300:	83 45 f0 01          	addl   $0x1,-0x10(%ebp)
80101304:	83 7d f0 4f          	cmpl   $0x4f,-0x10(%ebp)
80101308:	76 c8                	jbe    801012d2 <terminal_initialize+0x46>
8010130a:	83 45 f4 01          	addl   $0x1,-0xc(%ebp)
8010130e:	83 7d f4 7c          	cmpl   $0x7c,-0xc(%ebp)
80101312:	76 b5                	jbe    801012c9 <terminal_initialize+0x3d>
80101314:	a1 a4 06 11 80       	mov    0x801106a4,%eax
80101319:	83 ec 0c             	sub    $0xc,%esp
8010131c:	50                   	push   %eax
8010131d:	e8 90 fe ff ff       	call   801011b2 <minus_vga_height>
80101322:	83 c4 10             	add    $0x10,%esp
80101325:	a3 a0 06 11 80       	mov    %eax,0x801106a0
8010132a:	a1 a0 06 11 80       	mov    0x801106a0,%eax
8010132f:	83 ec 0c             	sub    $0xc,%esp
80101332:	50                   	push   %eax
80101333:	e8 db fe ff ff       	call   80101213 <sync_with_scroll_buffer>
80101338:	83 c4 10             	add    $0x10,%esp
8010133b:	90                   	nop
8010133c:	c9                   	leave  
8010133d:	c3                   	ret    

8010133e <terminal_putentryat>:
8010133e:	55                   	push   %ebp
8010133f:	89 e5                	mov    %esp,%ebp
80101341:	83 ec 18             	sub    $0x18,%esp
80101344:	8b 55 08             	mov    0x8(%ebp),%edx
80101347:	8b 45 0c             	mov    0xc(%ebp),%eax
8010134a:	88 55 ec             	mov    %dl,-0x14(%ebp)
8010134d:	88 45 e8             	mov    %al,-0x18(%ebp)
80101350:	0f b6 55 e8          	movzbl -0x18(%ebp),%edx
80101354:	0f b6 45 ec          	movzbl -0x14(%ebp),%eax
80101358:	0f b6 c0             	movzbl %al,%eax
8010135b:	52                   	push   %edx
8010135c:	50                   	push   %eax
8010135d:	e8 78 fe ff ff       	call   801011da <vga_entry>
80101362:	83 c4 08             	add    $0x8,%esp
80101365:	66 89 45 fe          	mov    %ax,-0x2(%ebp)
80101369:	8b 4d 14             	mov    0x14(%ebp),%ecx
8010136c:	ba d3 4d 62 10       	mov    $0x10624dd3,%edx
80101371:	89 c8                	mov    %ecx,%eax
80101373:	f7 e2                	mul    %edx
80101375:	c1 ea 03             	shr    $0x3,%edx
80101378:	6b c2 7d             	imul   $0x7d,%edx,%eax
8010137b:	29 c1                	sub    %eax,%ecx
8010137d:	89 ca                	mov    %ecx,%edx
8010137f:	89 d0                	mov    %edx,%eax
80101381:	c1 e0 02             	shl    $0x2,%eax
80101384:	01 d0                	add    %edx,%eax
80101386:	c1 e0 04             	shl    $0x4,%eax
80101389:	8b 55 10             	mov    0x10(%ebp),%edx
8010138c:	01 c2                	add    %eax,%edx
8010138e:	0f b7 45 fe          	movzwl -0x2(%ebp),%eax
80101392:	66 89 84 12 80 b8 10 	mov    %ax,-0x7fef4780(%edx,%edx,1)
80101399:	80 
8010139a:	90                   	nop
8010139b:	c9                   	leave  
8010139c:	c3                   	ret    

8010139d <clear_current_row>:
8010139d:	55                   	push   %ebp
8010139e:	89 e5                	mov    %esp,%ebp
801013a0:	53                   	push   %ebx
801013a1:	83 ec 10             	sub    $0x10,%esp
801013a4:	6a 00                	push   $0x0
801013a6:	6a 07                	push   $0x7
801013a8:	e8 1b fe ff ff       	call   801011c8 <vga_entry_color>
801013ad:	83 c4 08             	add    $0x8,%esp
801013b0:	88 45 f7             	mov    %al,-0x9(%ebp)
801013b3:	c7 45 f8 00 00 00 00 	movl   $0x0,-0x8(%ebp)
801013ba:	eb 32                	jmp    801013ee <clear_current_row+0x51>
801013bc:	0f b6 45 f7          	movzbl -0x9(%ebp),%eax
801013c0:	8b 1d a4 06 11 80    	mov    0x801106a4,%ebx
801013c6:	50                   	push   %eax
801013c7:	6a 20                	push   $0x20
801013c9:	e8 0c fe ff ff       	call   801011da <vga_entry>
801013ce:	83 c4 08             	add    $0x8,%esp
801013d1:	89 c2                	mov    %eax,%edx
801013d3:	89 d8                	mov    %ebx,%eax
801013d5:	c1 e0 02             	shl    $0x2,%eax
801013d8:	01 d8                	add    %ebx,%eax
801013da:	c1 e0 04             	shl    $0x4,%eax
801013dd:	8b 4d f8             	mov    -0x8(%ebp),%ecx
801013e0:	01 c8                	add    %ecx,%eax
801013e2:	66 89 94 00 80 b8 10 	mov    %dx,-0x7fef4780(%eax,%eax,1)
801013e9:	80 
801013ea:	83 45 f8 01          	addl   $0x1,-0x8(%ebp)
801013ee:	83 7d f8 4f          	cmpl   $0x4f,-0x8(%ebp)
801013f2:	76 c8                	jbe    801013bc <clear_current_row+0x1f>
801013f4:	90                   	nop
801013f5:	90                   	nop
801013f6:	8b 5d fc             	mov    -0x4(%ebp),%ebx
801013f9:	c9                   	leave  
801013fa:	c3                   	ret    

801013fb <next_row>:
801013fb:	55                   	push   %ebp
801013fc:	89 e5                	mov    %esp,%ebp
801013fe:	c7 05 60 b8 10 80 00 	movl   $0x0,0x8010b860
80101405:	00 00 00 
80101408:	a1 a4 06 11 80       	mov    0x801106a4,%eax
8010140d:	8d 48 01             	lea    0x1(%eax),%ecx
80101410:	ba d3 4d 62 10       	mov    $0x10624dd3,%edx
80101415:	89 c8                	mov    %ecx,%eax
80101417:	f7 e2                	mul    %edx
80101419:	89 d0                	mov    %edx,%eax
8010141b:	c1 e8 03             	shr    $0x3,%eax
8010141e:	6b d0 7d             	imul   $0x7d,%eax,%edx
80101421:	89 c8                	mov    %ecx,%eax
80101423:	29 d0                	sub    %edx,%eax
80101425:	a3 a4 06 11 80       	mov    %eax,0x801106a4
8010142a:	e8 6e ff ff ff       	call   8010139d <clear_current_row>
8010142f:	90                   	nop
80101430:	5d                   	pop    %ebp
80101431:	c3                   	ret    

80101432 <terminal_putchar_color>:
80101432:	55                   	push   %ebp
80101433:	89 e5                	mov    %esp,%ebp
80101435:	53                   	push   %ebx
80101436:	83 ec 14             	sub    $0x14,%esp
80101439:	8b 55 08             	mov    0x8(%ebp),%edx
8010143c:	8b 45 0c             	mov    0xc(%ebp),%eax
8010143f:	88 55 f4             	mov    %dl,-0xc(%ebp)
80101442:	88 45 f0             	mov    %al,-0x10(%ebp)
80101445:	80 7d f4 0a          	cmpb   $0xa,-0xc(%ebp)
80101449:	75 07                	jne    80101452 <terminal_putchar_color+0x20>
8010144b:	e8 ab ff ff ff       	call   801013fb <next_row>
80101450:	eb 3c                	jmp    8010148e <terminal_putchar_color+0x5c>
80101452:	8b 1d a4 06 11 80    	mov    0x801106a4,%ebx
80101458:	8b 0d 60 b8 10 80    	mov    0x8010b860,%ecx
8010145e:	0f b6 55 f0          	movzbl -0x10(%ebp),%edx
80101462:	0f be 45 f4          	movsbl -0xc(%ebp),%eax
80101466:	53                   	push   %ebx
80101467:	51                   	push   %ecx
80101468:	52                   	push   %edx
80101469:	50                   	push   %eax
8010146a:	e8 cf fe ff ff       	call   8010133e <terminal_putentryat>
8010146f:	83 c4 10             	add    $0x10,%esp
80101472:	a1 60 b8 10 80       	mov    0x8010b860,%eax
80101477:	83 c0 01             	add    $0x1,%eax
8010147a:	a3 60 b8 10 80       	mov    %eax,0x8010b860
8010147f:	a1 60 b8 10 80       	mov    0x8010b860,%eax
80101484:	83 f8 50             	cmp    $0x50,%eax
80101487:	75 05                	jne    8010148e <terminal_putchar_color+0x5c>
80101489:	e8 6d ff ff ff       	call   801013fb <next_row>
8010148e:	a1 a4 06 11 80       	mov    0x801106a4,%eax
80101493:	50                   	push   %eax
80101494:	e8 19 fd ff ff       	call   801011b2 <minus_vga_height>
80101499:	83 c4 04             	add    $0x4,%esp
8010149c:	a3 a0 06 11 80       	mov    %eax,0x801106a0
801014a1:	a1 a0 06 11 80       	mov    0x801106a0,%eax
801014a6:	83 c0 01             	add    $0x1,%eax
801014a9:	83 ec 0c             	sub    $0xc,%esp
801014ac:	50                   	push   %eax
801014ad:	e8 61 fd ff ff       	call   80101213 <sync_with_scroll_buffer>
801014b2:	83 c4 10             	add    $0x10,%esp
801014b5:	90                   	nop
801014b6:	8b 5d fc             	mov    -0x4(%ebp),%ebx
801014b9:	c9                   	leave  
801014ba:	c3                   	ret    

801014bb <terminal_write>:
801014bb:	55                   	push   %ebp
801014bc:	89 e5                	mov    %esp,%ebp
801014be:	83 ec 28             	sub    $0x28,%esp
801014c1:	8b 45 10             	mov    0x10(%ebp),%eax
801014c4:	88 45 e4             	mov    %al,-0x1c(%ebp)
801014c7:	c7 45 f4 00 00 00 00 	movl   $0x0,-0xc(%ebp)
801014ce:	eb 23                	jmp    801014f3 <terminal_write+0x38>
801014d0:	0f b6 55 e4          	movzbl -0x1c(%ebp),%edx
801014d4:	8b 4d 08             	mov    0x8(%ebp),%ecx
801014d7:	8b 45 f4             	mov    -0xc(%ebp),%eax
801014da:	01 c8                	add    %ecx,%eax
801014dc:	0f b6 00             	movzbl (%eax),%eax
801014df:	0f be c0             	movsbl %al,%eax
801014e2:	83 ec 08             	sub    $0x8,%esp
801014e5:	52                   	push   %edx
801014e6:	50                   	push   %eax
801014e7:	e8 46 ff ff ff       	call   80101432 <terminal_putchar_color>
801014ec:	83 c4 10             	add    $0x10,%esp
801014ef:	83 45 f4 01          	addl   $0x1,-0xc(%ebp)
801014f3:	8b 45 f4             	mov    -0xc(%ebp),%eax
801014f6:	3b 45 0c             	cmp    0xc(%ebp),%eax
801014f9:	72 d5                	jb     801014d0 <terminal_write+0x15>
801014fb:	90                   	nop
801014fc:	90                   	nop
801014fd:	c9                   	leave  
801014fe:	c3                   	ret    

801014ff <terminal_writestring>:
801014ff:	55                   	push   %ebp
80101500:	89 e5                	mov    %esp,%ebp
80101502:	53                   	push   %ebx
80101503:	83 ec 04             	sub    $0x4,%esp
80101506:	6a 00                	push   $0x0
80101508:	6a 07                	push   $0x7
8010150a:	e8 b9 fc ff ff       	call   801011c8 <vga_entry_color>
8010150f:	83 c4 08             	add    $0x8,%esp
80101512:	0f b6 d8             	movzbl %al,%ebx
80101515:	83 ec 0c             	sub    $0xc,%esp
80101518:	ff 75 08             	pushl  0x8(%ebp)
8010151b:	e8 a7 18 00 00       	call   80102dc7 <strlen>
80101520:	83 c4 10             	add    $0x10,%esp
80101523:	83 ec 04             	sub    $0x4,%esp
80101526:	53                   	push   %ebx
80101527:	50                   	push   %eax
80101528:	ff 75 08             	pushl  0x8(%ebp)
8010152b:	e8 8b ff ff ff       	call   801014bb <terminal_write>
80101530:	83 c4 10             	add    $0x10,%esp
80101533:	90                   	nop
80101534:	8b 5d fc             	mov    -0x4(%ebp),%ebx
80101537:	c9                   	leave  
80101538:	c3                   	ret    

80101539 <terminal_writestring_color>:
80101539:	55                   	push   %ebp
8010153a:	89 e5                	mov    %esp,%ebp
8010153c:	53                   	push   %ebx
8010153d:	83 ec 14             	sub    $0x14,%esp
80101540:	8b 45 0c             	mov    0xc(%ebp),%eax
80101543:	88 45 f4             	mov    %al,-0xc(%ebp)
80101546:	0f b6 5d f4          	movzbl -0xc(%ebp),%ebx
8010154a:	83 ec 0c             	sub    $0xc,%esp
8010154d:	ff 75 08             	pushl  0x8(%ebp)
80101550:	e8 72 18 00 00       	call   80102dc7 <strlen>
80101555:	83 c4 10             	add    $0x10,%esp
80101558:	83 ec 04             	sub    $0x4,%esp
8010155b:	53                   	push   %ebx
8010155c:	50                   	push   %eax
8010155d:	ff 75 08             	pushl  0x8(%ebp)
80101560:	e8 56 ff ff ff       	call   801014bb <terminal_write>
80101565:	83 c4 10             	add    $0x10,%esp
80101568:	90                   	nop
80101569:	8b 5d fc             	mov    -0x4(%ebp),%ebx
8010156c:	c9                   	leave  
8010156d:	c3                   	ret    

8010156e <terminal_cursor_up>:
8010156e:	55                   	push   %ebp
8010156f:	89 e5                	mov    %esp,%ebp
80101571:	83 ec 08             	sub    $0x8,%esp
80101574:	a1 a0 06 11 80       	mov    0x801106a0,%eax
80101579:	85 c0                	test   %eax,%eax
8010157b:	74 0a                	je     80101587 <terminal_cursor_up+0x19>
8010157d:	a1 a0 06 11 80       	mov    0x801106a0,%eax
80101582:	83 e8 01             	sub    $0x1,%eax
80101585:	eb 05                	jmp    8010158c <terminal_cursor_up+0x1e>
80101587:	b8 7c 00 00 00       	mov    $0x7c,%eax
8010158c:	a3 a0 06 11 80       	mov    %eax,0x801106a0
80101591:	a1 a0 06 11 80       	mov    0x801106a0,%eax
80101596:	83 ec 0c             	sub    $0xc,%esp
80101599:	50                   	push   %eax
8010159a:	e8 74 fc ff ff       	call   80101213 <sync_with_scroll_buffer>
8010159f:	83 c4 10             	add    $0x10,%esp
801015a2:	90                   	nop
801015a3:	c9                   	leave  
801015a4:	c3                   	ret    

801015a5 <terminal_cursor_down>:
801015a5:	55                   	push   %ebp
801015a6:	89 e5                	mov    %esp,%ebp
801015a8:	83 ec 08             	sub    $0x8,%esp
801015ab:	a1 a0 06 11 80       	mov    0x801106a0,%eax
801015b0:	8d 48 01             	lea    0x1(%eax),%ecx
801015b3:	ba d3 4d 62 10       	mov    $0x10624dd3,%edx
801015b8:	89 c8                	mov    %ecx,%eax
801015ba:	f7 e2                	mul    %edx
801015bc:	89 d0                	mov    %edx,%eax
801015be:	c1 e8 03             	shr    $0x3,%eax
801015c1:	6b d0 7d             	imul   $0x7d,%eax,%edx
801015c4:	89 c8                	mov    %ecx,%eax
801015c6:	29 d0                	sub    %edx,%eax
801015c8:	a3 a0 06 11 80       	mov    %eax,0x801106a0
801015cd:	a1 a0 06 11 80       	mov    0x801106a0,%eax
801015d2:	83 ec 0c             	sub    $0xc,%esp
801015d5:	50                   	push   %eax
801015d6:	e8 38 fc ff ff       	call   80101213 <sync_with_scroll_buffer>
801015db:	83 c4 10             	add    $0x10,%esp
801015de:	90                   	nop
801015df:	c9                   	leave  
801015e0:	c3                   	ret    

801015e1 <_putchar>:
801015e1:	55                   	push   %ebp
801015e2:	89 e5                	mov    %esp,%ebp
801015e4:	83 ec 18             	sub    $0x18,%esp
801015e7:	8b 45 08             	mov    0x8(%ebp),%eax
801015ea:	88 45 f4             	mov    %al,-0xc(%ebp)
801015ed:	a1 00 60 10 80       	mov    0x80106000,%eax
801015f2:	0f b6 d0             	movzbl %al,%edx
801015f5:	0f be 45 f4          	movsbl -0xc(%ebp),%eax
801015f9:	83 ec 08             	sub    $0x8,%esp
801015fc:	52                   	push   %edx
801015fd:	50                   	push   %eax
801015fe:	e8 2f fe ff ff       	call   80101432 <terminal_putchar_color>
80101603:	83 c4 10             	add    $0x10,%esp
80101606:	90                   	nop
80101607:	c9                   	leave  
80101608:	c3                   	ret    

80101609 <_out_buffer>:
80101609:	55                   	push   %ebp
8010160a:	89 e5                	mov    %esp,%ebp
8010160c:	83 ec 04             	sub    $0x4,%esp
8010160f:	8b 45 08             	mov    0x8(%ebp),%eax
80101612:	88 45 fc             	mov    %al,-0x4(%ebp)
80101615:	8b 45 10             	mov    0x10(%ebp),%eax
80101618:	3b 45 14             	cmp    0x14(%ebp),%eax
8010161b:	73 0e                	jae    8010162b <_out_buffer+0x22>
8010161d:	8b 55 0c             	mov    0xc(%ebp),%edx
80101620:	8b 45 10             	mov    0x10(%ebp),%eax
80101623:	01 c2                	add    %eax,%edx
80101625:	0f b6 45 fc          	movzbl -0x4(%ebp),%eax
80101629:	88 02                	mov    %al,(%edx)
8010162b:	90                   	nop
8010162c:	c9                   	leave  
8010162d:	c3                   	ret    

8010162e <_out_null>:
8010162e:	55                   	push   %ebp
8010162f:	89 e5                	mov    %esp,%ebp
80101631:	83 ec 04             	sub    $0x4,%esp
80101634:	8b 45 08             	mov    0x8(%ebp),%eax
80101637:	88 45 fc             	mov    %al,-0x4(%ebp)
8010163a:	90                   	nop
8010163b:	c9                   	leave  
8010163c:	c3                   	ret    

8010163d <_out_char>:
8010163d:	55                   	push   %ebp
8010163e:	89 e5                	mov    %esp,%ebp
80101640:	83 ec 18             	sub    $0x18,%esp
80101643:	8b 45 08             	mov    0x8(%ebp),%eax
80101646:	88 45 f4             	mov    %al,-0xc(%ebp)
80101649:	80 7d f4 00          	cmpb   $0x0,-0xc(%ebp)
8010164d:	74 10                	je     8010165f <_out_char+0x22>
8010164f:	0f be 45 f4          	movsbl -0xc(%ebp),%eax
80101653:	83 ec 0c             	sub    $0xc,%esp
80101656:	50                   	push   %eax
80101657:	e8 85 ff ff ff       	call   801015e1 <_putchar>
8010165c:	83 c4 10             	add    $0x10,%esp
8010165f:	90                   	nop
80101660:	c9                   	leave  
80101661:	c3                   	ret    

80101662 <_out_fct>:
80101662:	55                   	push   %ebp
80101663:	89 e5                	mov    %esp,%ebp
80101665:	83 ec 18             	sub    $0x18,%esp
80101668:	8b 45 08             	mov    0x8(%ebp),%eax
8010166b:	88 45 f4             	mov    %al,-0xc(%ebp)
8010166e:	80 7d f4 00          	cmpb   $0x0,-0xc(%ebp)
80101672:	74 19                	je     8010168d <_out_fct+0x2b>
80101674:	8b 45 0c             	mov    0xc(%ebp),%eax
80101677:	8b 00                	mov    (%eax),%eax
80101679:	8b 55 0c             	mov    0xc(%ebp),%edx
8010167c:	8b 4a 04             	mov    0x4(%edx),%ecx
8010167f:	0f be 55 f4          	movsbl -0xc(%ebp),%edx
80101683:	83 ec 08             	sub    $0x8,%esp
80101686:	51                   	push   %ecx
80101687:	52                   	push   %edx
80101688:	ff d0                	call   *%eax
8010168a:	83 c4 10             	add    $0x10,%esp
8010168d:	90                   	nop
8010168e:	c9                   	leave  
8010168f:	c3                   	ret    

80101690 <_strnlen_s>:
80101690:	55                   	push   %ebp
80101691:	89 e5                	mov    %esp,%ebp
80101693:	83 ec 10             	sub    $0x10,%esp
80101696:	8b 45 08             	mov    0x8(%ebp),%eax
80101699:	89 45 fc             	mov    %eax,-0x4(%ebp)
8010169c:	eb 04                	jmp    801016a2 <_strnlen_s+0x12>
8010169e:	83 45 fc 01          	addl   $0x1,-0x4(%ebp)
801016a2:	8b 45 fc             	mov    -0x4(%ebp),%eax
801016a5:	0f b6 00             	movzbl (%eax),%eax
801016a8:	84 c0                	test   %al,%al
801016aa:	74 0d                	je     801016b9 <_strnlen_s+0x29>
801016ac:	8b 45 0c             	mov    0xc(%ebp),%eax
801016af:	8d 50 ff             	lea    -0x1(%eax),%edx
801016b2:	89 55 0c             	mov    %edx,0xc(%ebp)
801016b5:	85 c0                	test   %eax,%eax
801016b7:	75 e5                	jne    8010169e <_strnlen_s+0xe>
801016b9:	8b 45 fc             	mov    -0x4(%ebp),%eax
801016bc:	2b 45 08             	sub    0x8(%ebp),%eax
801016bf:	c9                   	leave  
801016c0:	c3                   	ret    

801016c1 <_is_digit>:
801016c1:	55                   	push   %ebp
801016c2:	89 e5                	mov    %esp,%ebp
801016c4:	83 ec 04             	sub    $0x4,%esp
801016c7:	8b 45 08             	mov    0x8(%ebp),%eax
801016ca:	88 45 fc             	mov    %al,-0x4(%ebp)
801016cd:	80 7d fc 2f          	cmpb   $0x2f,-0x4(%ebp)
801016d1:	7e 0d                	jle    801016e0 <_is_digit+0x1f>
801016d3:	80 7d fc 39          	cmpb   $0x39,-0x4(%ebp)
801016d7:	7f 07                	jg     801016e0 <_is_digit+0x1f>
801016d9:	b8 01 00 00 00       	mov    $0x1,%eax
801016de:	eb 05                	jmp    801016e5 <_is_digit+0x24>
801016e0:	b8 00 00 00 00       	mov    $0x0,%eax
801016e5:	83 e0 01             	and    $0x1,%eax
801016e8:	c9                   	leave  
801016e9:	c3                   	ret    

801016ea <_atoi>:
801016ea:	55                   	push   %ebp
801016eb:	89 e5                	mov    %esp,%ebp
801016ed:	53                   	push   %ebx
801016ee:	83 ec 10             	sub    $0x10,%esp
801016f1:	c7 45 f8 00 00 00 00 	movl   $0x0,-0x8(%ebp)
801016f8:	eb 29                	jmp    80101723 <_atoi+0x39>
801016fa:	8b 55 f8             	mov    -0x8(%ebp),%edx
801016fd:	89 d0                	mov    %edx,%eax
801016ff:	c1 e0 02             	shl    $0x2,%eax
80101702:	01 d0                	add    %edx,%eax
80101704:	01 c0                	add    %eax,%eax
80101706:	89 c3                	mov    %eax,%ebx
80101708:	8b 45 08             	mov    0x8(%ebp),%eax
8010170b:	8b 00                	mov    (%eax),%eax
8010170d:	8d 48 01             	lea    0x1(%eax),%ecx
80101710:	8b 55 08             	mov    0x8(%ebp),%edx
80101713:	89 0a                	mov    %ecx,(%edx)
80101715:	0f b6 00             	movzbl (%eax),%eax
80101718:	0f be c0             	movsbl %al,%eax
8010171b:	01 d8                	add    %ebx,%eax
8010171d:	83 e8 30             	sub    $0x30,%eax
80101720:	89 45 f8             	mov    %eax,-0x8(%ebp)
80101723:	8b 45 08             	mov    0x8(%ebp),%eax
80101726:	8b 00                	mov    (%eax),%eax
80101728:	0f b6 00             	movzbl (%eax),%eax
8010172b:	0f be c0             	movsbl %al,%eax
8010172e:	50                   	push   %eax
8010172f:	e8 8d ff ff ff       	call   801016c1 <_is_digit>
80101734:	83 c4 04             	add    $0x4,%esp
80101737:	84 c0                	test   %al,%al
80101739:	75 bf                	jne    801016fa <_atoi+0x10>
8010173b:	8b 45 f8             	mov    -0x8(%ebp),%eax
8010173e:	8b 5d fc             	mov    -0x4(%ebp),%ebx
80101741:	c9                   	leave  
80101742:	c3                   	ret    

80101743 <_out_rev>:
80101743:	55                   	push   %ebp
80101744:	89 e5                	mov    %esp,%ebp
80101746:	83 ec 18             	sub    $0x18,%esp
80101749:	8b 45 10             	mov    0x10(%ebp),%eax
8010174c:	89 45 f0             	mov    %eax,-0x10(%ebp)
8010174f:	8b 45 24             	mov    0x24(%ebp),%eax
80101752:	83 e0 02             	and    $0x2,%eax
80101755:	85 c0                	test   %eax,%eax
80101757:	75 65                	jne    801017be <_out_rev+0x7b>
80101759:	8b 45 24             	mov    0x24(%ebp),%eax
8010175c:	83 e0 01             	and    $0x1,%eax
8010175f:	85 c0                	test   %eax,%eax
80101761:	75 5b                	jne    801017be <_out_rev+0x7b>
80101763:	8b 45 1c             	mov    0x1c(%ebp),%eax
80101766:	89 45 f4             	mov    %eax,-0xc(%ebp)
80101769:	eb 1e                	jmp    80101789 <_out_rev+0x46>
8010176b:	8b 45 10             	mov    0x10(%ebp),%eax
8010176e:	8d 50 01             	lea    0x1(%eax),%edx
80101771:	89 55 10             	mov    %edx,0x10(%ebp)
80101774:	ff 75 14             	pushl  0x14(%ebp)
80101777:	50                   	push   %eax
80101778:	ff 75 0c             	pushl  0xc(%ebp)
8010177b:	6a 20                	push   $0x20
8010177d:	8b 45 08             	mov    0x8(%ebp),%eax
80101780:	ff d0                	call   *%eax
80101782:	83 c4 10             	add    $0x10,%esp
80101785:	83 45 f4 01          	addl   $0x1,-0xc(%ebp)
80101789:	8b 45 f4             	mov    -0xc(%ebp),%eax
8010178c:	3b 45 20             	cmp    0x20(%ebp),%eax
8010178f:	72 da                	jb     8010176b <_out_rev+0x28>
80101791:	eb 2b                	jmp    801017be <_out_rev+0x7b>
80101793:	8b 45 10             	mov    0x10(%ebp),%eax
80101796:	8d 50 01             	lea    0x1(%eax),%edx
80101799:	89 55 10             	mov    %edx,0x10(%ebp)
8010179c:	83 6d 1c 01          	subl   $0x1,0x1c(%ebp)
801017a0:	8b 4d 18             	mov    0x18(%ebp),%ecx
801017a3:	8b 55 1c             	mov    0x1c(%ebp),%edx
801017a6:	01 ca                	add    %ecx,%edx
801017a8:	0f b6 12             	movzbl (%edx),%edx
801017ab:	0f be d2             	movsbl %dl,%edx
801017ae:	ff 75 14             	pushl  0x14(%ebp)
801017b1:	50                   	push   %eax
801017b2:	ff 75 0c             	pushl  0xc(%ebp)
801017b5:	52                   	push   %edx
801017b6:	8b 45 08             	mov    0x8(%ebp),%eax
801017b9:	ff d0                	call   *%eax
801017bb:	83 c4 10             	add    $0x10,%esp
801017be:	83 7d 1c 00          	cmpl   $0x0,0x1c(%ebp)
801017c2:	75 cf                	jne    80101793 <_out_rev+0x50>
801017c4:	8b 45 24             	mov    0x24(%ebp),%eax
801017c7:	83 e0 02             	and    $0x2,%eax
801017ca:	85 c0                	test   %eax,%eax
801017cc:	74 27                	je     801017f5 <_out_rev+0xb2>
801017ce:	eb 1a                	jmp    801017ea <_out_rev+0xa7>
801017d0:	8b 45 10             	mov    0x10(%ebp),%eax
801017d3:	8d 50 01             	lea    0x1(%eax),%edx
801017d6:	89 55 10             	mov    %edx,0x10(%ebp)
801017d9:	ff 75 14             	pushl  0x14(%ebp)
801017dc:	50                   	push   %eax
801017dd:	ff 75 0c             	pushl  0xc(%ebp)
801017e0:	6a 20                	push   $0x20
801017e2:	8b 45 08             	mov    0x8(%ebp),%eax
801017e5:	ff d0                	call   *%eax
801017e7:	83 c4 10             	add    $0x10,%esp
801017ea:	8b 45 10             	mov    0x10(%ebp),%eax
801017ed:	2b 45 f0             	sub    -0x10(%ebp),%eax
801017f0:	39 45 20             	cmp    %eax,0x20(%ebp)
801017f3:	77 db                	ja     801017d0 <_out_rev+0x8d>
801017f5:	8b 45 10             	mov    0x10(%ebp),%eax
801017f8:	c9                   	leave  
801017f9:	c3                   	ret    

801017fa <_ntoa_format>:
801017fa:	55                   	push   %ebp
801017fb:	89 e5                	mov    %esp,%ebp
801017fd:	83 ec 18             	sub    $0x18,%esp
80101800:	8b 45 20             	mov    0x20(%ebp),%eax
80101803:	88 45 f4             	mov    %al,-0xc(%ebp)
80101806:	8b 45 30             	mov    0x30(%ebp),%eax
80101809:	83 e0 02             	and    $0x2,%eax
8010180c:	85 c0                	test   %eax,%eax
8010180e:	75 70                	jne    80101880 <_ntoa_format+0x86>
80101810:	83 7d 2c 00          	cmpl   $0x0,0x2c(%ebp)
80101814:	74 31                	je     80101847 <_ntoa_format+0x4d>
80101816:	8b 45 30             	mov    0x30(%ebp),%eax
80101819:	83 e0 01             	and    $0x1,%eax
8010181c:	85 c0                	test   %eax,%eax
8010181e:	74 27                	je     80101847 <_ntoa_format+0x4d>
80101820:	80 7d f4 00          	cmpb   $0x0,-0xc(%ebp)
80101824:	75 0a                	jne    80101830 <_ntoa_format+0x36>
80101826:	8b 45 30             	mov    0x30(%ebp),%eax
80101829:	83 e0 0c             	and    $0xc,%eax
8010182c:	85 c0                	test   %eax,%eax
8010182e:	74 17                	je     80101847 <_ntoa_format+0x4d>
80101830:	83 6d 2c 01          	subl   $0x1,0x2c(%ebp)
80101834:	eb 11                	jmp    80101847 <_ntoa_format+0x4d>
80101836:	8b 45 1c             	mov    0x1c(%ebp),%eax
80101839:	8d 50 01             	lea    0x1(%eax),%edx
8010183c:	89 55 1c             	mov    %edx,0x1c(%ebp)
8010183f:	8b 55 18             	mov    0x18(%ebp),%edx
80101842:	01 d0                	add    %edx,%eax
80101844:	c6 00 30             	movb   $0x30,(%eax)
80101847:	8b 45 1c             	mov    0x1c(%ebp),%eax
8010184a:	3b 45 28             	cmp    0x28(%ebp),%eax
8010184d:	73 19                	jae    80101868 <_ntoa_format+0x6e>
8010184f:	83 7d 1c 1f          	cmpl   $0x1f,0x1c(%ebp)
80101853:	76 e1                	jbe    80101836 <_ntoa_format+0x3c>
80101855:	eb 11                	jmp    80101868 <_ntoa_format+0x6e>
80101857:	8b 45 1c             	mov    0x1c(%ebp),%eax
8010185a:	8d 50 01             	lea    0x1(%eax),%edx
8010185d:	89 55 1c             	mov    %edx,0x1c(%ebp)
80101860:	8b 55 18             	mov    0x18(%ebp),%edx
80101863:	01 d0                	add    %edx,%eax
80101865:	c6 00 30             	movb   $0x30,(%eax)
80101868:	8b 45 30             	mov    0x30(%ebp),%eax
8010186b:	83 e0 01             	and    $0x1,%eax
8010186e:	85 c0                	test   %eax,%eax
80101870:	74 0e                	je     80101880 <_ntoa_format+0x86>
80101872:	8b 45 1c             	mov    0x1c(%ebp),%eax
80101875:	3b 45 2c             	cmp    0x2c(%ebp),%eax
80101878:	73 06                	jae    80101880 <_ntoa_format+0x86>
8010187a:	83 7d 1c 1f          	cmpl   $0x1f,0x1c(%ebp)
8010187e:	76 d7                	jbe    80101857 <_ntoa_format+0x5d>
80101880:	8b 45 30             	mov    0x30(%ebp),%eax
80101883:	83 e0 10             	and    $0x10,%eax
80101886:	85 c0                	test   %eax,%eax
80101888:	0f 84 bc 00 00 00    	je     8010194a <_ntoa_format+0x150>
8010188e:	8b 45 30             	mov    0x30(%ebp),%eax
80101891:	25 00 04 00 00       	and    $0x400,%eax
80101896:	85 c0                	test   %eax,%eax
80101898:	75 2a                	jne    801018c4 <_ntoa_format+0xca>
8010189a:	83 7d 1c 00          	cmpl   $0x0,0x1c(%ebp)
8010189e:	74 24                	je     801018c4 <_ntoa_format+0xca>
801018a0:	8b 45 1c             	mov    0x1c(%ebp),%eax
801018a3:	3b 45 28             	cmp    0x28(%ebp),%eax
801018a6:	74 08                	je     801018b0 <_ntoa_format+0xb6>
801018a8:	8b 45 1c             	mov    0x1c(%ebp),%eax
801018ab:	3b 45 2c             	cmp    0x2c(%ebp),%eax
801018ae:	75 14                	jne    801018c4 <_ntoa_format+0xca>
801018b0:	83 6d 1c 01          	subl   $0x1,0x1c(%ebp)
801018b4:	83 7d 1c 00          	cmpl   $0x0,0x1c(%ebp)
801018b8:	74 0a                	je     801018c4 <_ntoa_format+0xca>
801018ba:	83 7d 24 10          	cmpl   $0x10,0x24(%ebp)
801018be:	75 04                	jne    801018c4 <_ntoa_format+0xca>
801018c0:	83 6d 1c 01          	subl   $0x1,0x1c(%ebp)
801018c4:	83 7d 24 10          	cmpl   $0x10,0x24(%ebp)
801018c8:	75 23                	jne    801018ed <_ntoa_format+0xf3>
801018ca:	8b 45 30             	mov    0x30(%ebp),%eax
801018cd:	83 e0 20             	and    $0x20,%eax
801018d0:	85 c0                	test   %eax,%eax
801018d2:	75 19                	jne    801018ed <_ntoa_format+0xf3>
801018d4:	83 7d 1c 1f          	cmpl   $0x1f,0x1c(%ebp)
801018d8:	77 13                	ja     801018ed <_ntoa_format+0xf3>
801018da:	8b 45 1c             	mov    0x1c(%ebp),%eax
801018dd:	8d 50 01             	lea    0x1(%eax),%edx
801018e0:	89 55 1c             	mov    %edx,0x1c(%ebp)
801018e3:	8b 55 18             	mov    0x18(%ebp),%edx
801018e6:	01 d0                	add    %edx,%eax
801018e8:	c6 00 78             	movb   $0x78,(%eax)
801018eb:	eb 46                	jmp    80101933 <_ntoa_format+0x139>
801018ed:	83 7d 24 10          	cmpl   $0x10,0x24(%ebp)
801018f1:	75 23                	jne    80101916 <_ntoa_format+0x11c>
801018f3:	8b 45 30             	mov    0x30(%ebp),%eax
801018f6:	83 e0 20             	and    $0x20,%eax
801018f9:	85 c0                	test   %eax,%eax
801018fb:	74 19                	je     80101916 <_ntoa_format+0x11c>
801018fd:	83 7d 1c 1f          	cmpl   $0x1f,0x1c(%ebp)
80101901:	77 13                	ja     80101916 <_ntoa_format+0x11c>
80101903:	8b 45 1c             	mov    0x1c(%ebp),%eax
80101906:	8d 50 01             	lea    0x1(%eax),%edx
80101909:	89 55 1c             	mov    %edx,0x1c(%ebp)
8010190c:	8b 55 18             	mov    0x18(%ebp),%edx
8010190f:	01 d0                	add    %edx,%eax
80101911:	c6 00 58             	movb   $0x58,(%eax)
80101914:	eb 1d                	jmp    80101933 <_ntoa_format+0x139>
80101916:	83 7d 24 02          	cmpl   $0x2,0x24(%ebp)
8010191a:	75 17                	jne    80101933 <_ntoa_format+0x139>
8010191c:	83 7d 1c 1f          	cmpl   $0x1f,0x1c(%ebp)
80101920:	77 11                	ja     80101933 <_ntoa_format+0x139>
80101922:	8b 45 1c             	mov    0x1c(%ebp),%eax
80101925:	8d 50 01             	lea    0x1(%eax),%edx
80101928:	89 55 1c             	mov    %edx,0x1c(%ebp)
8010192b:	8b 55 18             	mov    0x18(%ebp),%edx
8010192e:	01 d0                	add    %edx,%eax
80101930:	c6 00 62             	movb   $0x62,(%eax)
80101933:	83 7d 1c 1f          	cmpl   $0x1f,0x1c(%ebp)
80101937:	77 11                	ja     8010194a <_ntoa_format+0x150>
80101939:	8b 45 1c             	mov    0x1c(%ebp),%eax
8010193c:	8d 50 01             	lea    0x1(%eax),%edx
8010193f:	89 55 1c             	mov    %edx,0x1c(%ebp)
80101942:	8b 55 18             	mov    0x18(%ebp),%edx
80101945:	01 d0                	add    %edx,%eax
80101947:	c6 00 30             	movb   $0x30,(%eax)
8010194a:	83 7d 1c 1f          	cmpl   $0x1f,0x1c(%ebp)
8010194e:	77 51                	ja     801019a1 <_ntoa_format+0x1a7>
80101950:	80 7d f4 00          	cmpb   $0x0,-0xc(%ebp)
80101954:	74 13                	je     80101969 <_ntoa_format+0x16f>
80101956:	8b 45 1c             	mov    0x1c(%ebp),%eax
80101959:	8d 50 01             	lea    0x1(%eax),%edx
8010195c:	89 55 1c             	mov    %edx,0x1c(%ebp)
8010195f:	8b 55 18             	mov    0x18(%ebp),%edx
80101962:	01 d0                	add    %edx,%eax
80101964:	c6 00 2d             	movb   $0x2d,(%eax)
80101967:	eb 38                	jmp    801019a1 <_ntoa_format+0x1a7>
80101969:	8b 45 30             	mov    0x30(%ebp),%eax
8010196c:	83 e0 04             	and    $0x4,%eax
8010196f:	85 c0                	test   %eax,%eax
80101971:	74 13                	je     80101986 <_ntoa_format+0x18c>
80101973:	8b 45 1c             	mov    0x1c(%ebp),%eax
80101976:	8d 50 01             	lea    0x1(%eax),%edx
80101979:	89 55 1c             	mov    %edx,0x1c(%ebp)
8010197c:	8b 55 18             	mov    0x18(%ebp),%edx
8010197f:	01 d0                	add    %edx,%eax
80101981:	c6 00 2b             	movb   $0x2b,(%eax)
80101984:	eb 1b                	jmp    801019a1 <_ntoa_format+0x1a7>
80101986:	8b 45 30             	mov    0x30(%ebp),%eax
80101989:	83 e0 08             	and    $0x8,%eax
8010198c:	85 c0                	test   %eax,%eax
8010198e:	74 11                	je     801019a1 <_ntoa_format+0x1a7>
80101990:	8b 45 1c             	mov    0x1c(%ebp),%eax
80101993:	8d 50 01             	lea    0x1(%eax),%edx
80101996:	89 55 1c             	mov    %edx,0x1c(%ebp)
80101999:	8b 55 18             	mov    0x18(%ebp),%edx
8010199c:	01 d0                	add    %edx,%eax
8010199e:	c6 00 20             	movb   $0x20,(%eax)
801019a1:	ff 75 30             	pushl  0x30(%ebp)
801019a4:	ff 75 2c             	pushl  0x2c(%ebp)
801019a7:	ff 75 1c             	pushl  0x1c(%ebp)
801019aa:	ff 75 18             	pushl  0x18(%ebp)
801019ad:	ff 75 14             	pushl  0x14(%ebp)
801019b0:	ff 75 10             	pushl  0x10(%ebp)
801019b3:	ff 75 0c             	pushl  0xc(%ebp)
801019b6:	ff 75 08             	pushl  0x8(%ebp)
801019b9:	e8 85 fd ff ff       	call   80101743 <_out_rev>
801019be:	83 c4 20             	add    $0x20,%esp
801019c1:	c9                   	leave  
801019c2:	c3                   	ret    

801019c3 <_ntoa_long>:
801019c3:	55                   	push   %ebp
801019c4:	89 e5                	mov    %esp,%ebp
801019c6:	83 ec 48             	sub    $0x48,%esp
801019c9:	8b 45 1c             	mov    0x1c(%ebp),%eax
801019cc:	88 45 c4             	mov    %al,-0x3c(%ebp)
801019cf:	c7 45 f4 00 00 00 00 	movl   $0x0,-0xc(%ebp)
801019d6:	83 7d 18 00          	cmpl   $0x0,0x18(%ebp)
801019da:	75 04                	jne    801019e0 <_ntoa_long+0x1d>
801019dc:	83 65 2c ef          	andl   $0xffffffef,0x2c(%ebp)
801019e0:	8b 45 2c             	mov    0x2c(%ebp),%eax
801019e3:	25 00 04 00 00       	and    $0x400,%eax
801019e8:	85 c0                	test   %eax,%eax
801019ea:	74 06                	je     801019f2 <_ntoa_long+0x2f>
801019ec:	83 7d 18 00          	cmpl   $0x0,0x18(%ebp)
801019f0:	74 69                	je     80101a5b <_ntoa_long+0x98>
801019f2:	8b 45 18             	mov    0x18(%ebp),%eax
801019f5:	ba 00 00 00 00       	mov    $0x0,%edx
801019fa:	f7 75 20             	divl   0x20(%ebp)
801019fd:	89 d0                	mov    %edx,%eax
801019ff:	88 45 f3             	mov    %al,-0xd(%ebp)
80101a02:	80 7d f3 09          	cmpb   $0x9,-0xd(%ebp)
80101a06:	7f 0b                	jg     80101a13 <_ntoa_long+0x50>
80101a08:	0f b6 45 f3          	movzbl -0xd(%ebp),%eax
80101a0c:	83 c0 30             	add    $0x30,%eax
80101a0f:	89 c1                	mov    %eax,%ecx
80101a11:	eb 21                	jmp    80101a34 <_ntoa_long+0x71>
80101a13:	8b 45 2c             	mov    0x2c(%ebp),%eax
80101a16:	83 e0 20             	and    $0x20,%eax
80101a19:	85 c0                	test   %eax,%eax
80101a1b:	74 07                	je     80101a24 <_ntoa_long+0x61>
80101a1d:	ba 41 00 00 00       	mov    $0x41,%edx
80101a22:	eb 05                	jmp    80101a29 <_ntoa_long+0x66>
80101a24:	ba 61 00 00 00       	mov    $0x61,%edx
80101a29:	0f b6 45 f3          	movzbl -0xd(%ebp),%eax
80101a2d:	01 d0                	add    %edx,%eax
80101a2f:	83 e8 0a             	sub    $0xa,%eax
80101a32:	89 c1                	mov    %eax,%ecx
80101a34:	8b 45 f4             	mov    -0xc(%ebp),%eax
80101a37:	8d 50 01             	lea    0x1(%eax),%edx
80101a3a:	89 55 f4             	mov    %edx,-0xc(%ebp)
80101a3d:	88 4c 05 d3          	mov    %cl,-0x2d(%ebp,%eax,1)
80101a41:	8b 45 18             	mov    0x18(%ebp),%eax
80101a44:	ba 00 00 00 00       	mov    $0x0,%edx
80101a49:	f7 75 20             	divl   0x20(%ebp)
80101a4c:	89 45 18             	mov    %eax,0x18(%ebp)
80101a4f:	83 7d 18 00          	cmpl   $0x0,0x18(%ebp)
80101a53:	74 06                	je     80101a5b <_ntoa_long+0x98>
80101a55:	83 7d f4 1f          	cmpl   $0x1f,-0xc(%ebp)
80101a59:	76 97                	jbe    801019f2 <_ntoa_long+0x2f>
80101a5b:	0f b6 45 c4          	movzbl -0x3c(%ebp),%eax
80101a5f:	83 ec 04             	sub    $0x4,%esp
80101a62:	ff 75 2c             	pushl  0x2c(%ebp)
80101a65:	ff 75 28             	pushl  0x28(%ebp)
80101a68:	ff 75 24             	pushl  0x24(%ebp)
80101a6b:	ff 75 20             	pushl  0x20(%ebp)
80101a6e:	50                   	push   %eax
80101a6f:	ff 75 f4             	pushl  -0xc(%ebp)
80101a72:	8d 45 d3             	lea    -0x2d(%ebp),%eax
80101a75:	50                   	push   %eax
80101a76:	ff 75 14             	pushl  0x14(%ebp)
80101a79:	ff 75 10             	pushl  0x10(%ebp)
80101a7c:	ff 75 0c             	pushl  0xc(%ebp)
80101a7f:	ff 75 08             	pushl  0x8(%ebp)
80101a82:	e8 73 fd ff ff       	call   801017fa <_ntoa_format>
80101a87:	83 c4 30             	add    $0x30,%esp
80101a8a:	c9                   	leave  
80101a8b:	c3                   	ret    

80101a8c <_vsnprintf>:
80101a8c:	55                   	push   %ebp
80101a8d:	89 e5                	mov    %esp,%ebp
80101a8f:	83 ec 48             	sub    $0x48,%esp
80101a92:	c7 45 e4 00 00 00 00 	movl   $0x0,-0x1c(%ebp)
80101a99:	83 7d 0c 00          	cmpl   $0x0,0xc(%ebp)
80101a9d:	0f 85 57 07 00 00    	jne    801021fa <_vsnprintf+0x76e>
80101aa3:	c7 45 08 2e 16 10 80 	movl   $0x8010162e,0x8(%ebp)
80101aaa:	e9 4b 07 00 00       	jmp    801021fa <_vsnprintf+0x76e>
80101aaf:	8b 45 14             	mov    0x14(%ebp),%eax
80101ab2:	0f b6 00             	movzbl (%eax),%eax
80101ab5:	3c 25                	cmp    $0x25,%al
80101ab7:	74 30                	je     80101ae9 <_vsnprintf+0x5d>
80101ab9:	8b 45 e4             	mov    -0x1c(%ebp),%eax
80101abc:	8d 50 01             	lea    0x1(%eax),%edx
80101abf:	89 55 e4             	mov    %edx,-0x1c(%ebp)
80101ac2:	8b 55 14             	mov    0x14(%ebp),%edx
80101ac5:	0f b6 12             	movzbl (%edx),%edx
80101ac8:	0f be d2             	movsbl %dl,%edx
80101acb:	ff 75 10             	pushl  0x10(%ebp)
80101ace:	50                   	push   %eax
80101acf:	ff 75 0c             	pushl  0xc(%ebp)
80101ad2:	52                   	push   %edx
80101ad3:	8b 45 08             	mov    0x8(%ebp),%eax
80101ad6:	ff d0                	call   *%eax
80101ad8:	83 c4 10             	add    $0x10,%esp
80101adb:	8b 45 14             	mov    0x14(%ebp),%eax
80101ade:	83 c0 01             	add    $0x1,%eax
80101ae1:	89 45 14             	mov    %eax,0x14(%ebp)
80101ae4:	e9 11 07 00 00       	jmp    801021fa <_vsnprintf+0x76e>
80101ae9:	8b 45 14             	mov    0x14(%ebp),%eax
80101aec:	83 c0 01             	add    $0x1,%eax
80101aef:	89 45 14             	mov    %eax,0x14(%ebp)
80101af2:	c7 45 f4 00 00 00 00 	movl   $0x0,-0xc(%ebp)
80101af9:	8b 45 14             	mov    0x14(%ebp),%eax
80101afc:	0f b6 00             	movzbl (%eax),%eax
80101aff:	0f be c0             	movsbl %al,%eax
80101b02:	83 e8 20             	sub    $0x20,%eax
80101b05:	83 f8 10             	cmp    $0x10,%eax
80101b08:	77 77                	ja     80101b81 <_vsnprintf+0xf5>
80101b0a:	8b 04 85 c8 51 10 80 	mov    -0x7fefae38(,%eax,4),%eax
80101b11:	ff e0                	jmp    *%eax
80101b13:	83 4d f4 01          	orl    $0x1,-0xc(%ebp)
80101b17:	8b 45 14             	mov    0x14(%ebp),%eax
80101b1a:	83 c0 01             	add    $0x1,%eax
80101b1d:	89 45 14             	mov    %eax,0x14(%ebp)
80101b20:	c7 45 e8 01 00 00 00 	movl   $0x1,-0x18(%ebp)
80101b27:	eb 60                	jmp    80101b89 <_vsnprintf+0xfd>
80101b29:	83 4d f4 02          	orl    $0x2,-0xc(%ebp)
80101b2d:	8b 45 14             	mov    0x14(%ebp),%eax
80101b30:	83 c0 01             	add    $0x1,%eax
80101b33:	89 45 14             	mov    %eax,0x14(%ebp)
80101b36:	c7 45 e8 01 00 00 00 	movl   $0x1,-0x18(%ebp)
80101b3d:	eb 4a                	jmp    80101b89 <_vsnprintf+0xfd>
80101b3f:	83 4d f4 04          	orl    $0x4,-0xc(%ebp)
80101b43:	8b 45 14             	mov    0x14(%ebp),%eax
80101b46:	83 c0 01             	add    $0x1,%eax
80101b49:	89 45 14             	mov    %eax,0x14(%ebp)
80101b4c:	c7 45 e8 01 00 00 00 	movl   $0x1,-0x18(%ebp)
80101b53:	eb 34                	jmp    80101b89 <_vsnprintf+0xfd>
80101b55:	83 4d f4 08          	orl    $0x8,-0xc(%ebp)
80101b59:	8b 45 14             	mov    0x14(%ebp),%eax
80101b5c:	83 c0 01             	add    $0x1,%eax
80101b5f:	89 45 14             	mov    %eax,0x14(%ebp)
80101b62:	c7 45 e8 01 00 00 00 	movl   $0x1,-0x18(%ebp)
80101b69:	eb 1e                	jmp    80101b89 <_vsnprintf+0xfd>
80101b6b:	83 4d f4 10          	orl    $0x10,-0xc(%ebp)
80101b6f:	8b 45 14             	mov    0x14(%ebp),%eax
80101b72:	83 c0 01             	add    $0x1,%eax
80101b75:	89 45 14             	mov    %eax,0x14(%ebp)
80101b78:	c7 45 e8 01 00 00 00 	movl   $0x1,-0x18(%ebp)
80101b7f:	eb 08                	jmp    80101b89 <_vsnprintf+0xfd>
80101b81:	c7 45 e8 00 00 00 00 	movl   $0x0,-0x18(%ebp)
80101b88:	90                   	nop
80101b89:	83 7d e8 00          	cmpl   $0x0,-0x18(%ebp)
80101b8d:	0f 85 66 ff ff ff    	jne    80101af9 <_vsnprintf+0x6d>
80101b93:	c7 45 f0 00 00 00 00 	movl   $0x0,-0x10(%ebp)
80101b9a:	8b 45 14             	mov    0x14(%ebp),%eax
80101b9d:	0f b6 00             	movzbl (%eax),%eax
80101ba0:	0f be c0             	movsbl %al,%eax
80101ba3:	83 ec 0c             	sub    $0xc,%esp
80101ba6:	50                   	push   %eax
80101ba7:	e8 15 fb ff ff       	call   801016c1 <_is_digit>
80101bac:	83 c4 10             	add    $0x10,%esp
80101baf:	84 c0                	test   %al,%al
80101bb1:	74 14                	je     80101bc7 <_vsnprintf+0x13b>
80101bb3:	83 ec 0c             	sub    $0xc,%esp
80101bb6:	8d 45 14             	lea    0x14(%ebp),%eax
80101bb9:	50                   	push   %eax
80101bba:	e8 2b fb ff ff       	call   801016ea <_atoi>
80101bbf:	83 c4 10             	add    $0x10,%esp
80101bc2:	89 45 f0             	mov    %eax,-0x10(%ebp)
80101bc5:	eb 3b                	jmp    80101c02 <_vsnprintf+0x176>
80101bc7:	8b 45 14             	mov    0x14(%ebp),%eax
80101bca:	0f b6 00             	movzbl (%eax),%eax
80101bcd:	3c 2a                	cmp    $0x2a,%al
80101bcf:	75 31                	jne    80101c02 <_vsnprintf+0x176>
80101bd1:	8b 45 18             	mov    0x18(%ebp),%eax
80101bd4:	8d 50 04             	lea    0x4(%eax),%edx
80101bd7:	89 55 18             	mov    %edx,0x18(%ebp)
80101bda:	8b 00                	mov    (%eax),%eax
80101bdc:	89 45 d0             	mov    %eax,-0x30(%ebp)
80101bdf:	83 7d d0 00          	cmpl   $0x0,-0x30(%ebp)
80101be3:	79 0e                	jns    80101bf3 <_vsnprintf+0x167>
80101be5:	83 4d f4 02          	orl    $0x2,-0xc(%ebp)
80101be9:	8b 45 d0             	mov    -0x30(%ebp),%eax
80101bec:	f7 d8                	neg    %eax
80101bee:	89 45 f0             	mov    %eax,-0x10(%ebp)
80101bf1:	eb 06                	jmp    80101bf9 <_vsnprintf+0x16d>
80101bf3:	8b 45 d0             	mov    -0x30(%ebp),%eax
80101bf6:	89 45 f0             	mov    %eax,-0x10(%ebp)
80101bf9:	8b 45 14             	mov    0x14(%ebp),%eax
80101bfc:	83 c0 01             	add    $0x1,%eax
80101bff:	89 45 14             	mov    %eax,0x14(%ebp)
80101c02:	c7 45 ec 00 00 00 00 	movl   $0x0,-0x14(%ebp)
80101c09:	8b 45 14             	mov    0x14(%ebp),%eax
80101c0c:	0f b6 00             	movzbl (%eax),%eax
80101c0f:	3c 2e                	cmp    $0x2e,%al
80101c11:	75 6e                	jne    80101c81 <_vsnprintf+0x1f5>
80101c13:	81 4d f4 00 04 00 00 	orl    $0x400,-0xc(%ebp)
80101c1a:	8b 45 14             	mov    0x14(%ebp),%eax
80101c1d:	83 c0 01             	add    $0x1,%eax
80101c20:	89 45 14             	mov    %eax,0x14(%ebp)
80101c23:	8b 45 14             	mov    0x14(%ebp),%eax
80101c26:	0f b6 00             	movzbl (%eax),%eax
80101c29:	0f be c0             	movsbl %al,%eax
80101c2c:	83 ec 0c             	sub    $0xc,%esp
80101c2f:	50                   	push   %eax
80101c30:	e8 8c fa ff ff       	call   801016c1 <_is_digit>
80101c35:	83 c4 10             	add    $0x10,%esp
80101c38:	84 c0                	test   %al,%al
80101c3a:	74 14                	je     80101c50 <_vsnprintf+0x1c4>
80101c3c:	83 ec 0c             	sub    $0xc,%esp
80101c3f:	8d 45 14             	lea    0x14(%ebp),%eax
80101c42:	50                   	push   %eax
80101c43:	e8 a2 fa ff ff       	call   801016ea <_atoi>
80101c48:	83 c4 10             	add    $0x10,%esp
80101c4b:	89 45 ec             	mov    %eax,-0x14(%ebp)
80101c4e:	eb 31                	jmp    80101c81 <_vsnprintf+0x1f5>
80101c50:	8b 45 14             	mov    0x14(%ebp),%eax
80101c53:	0f b6 00             	movzbl (%eax),%eax
80101c56:	3c 2a                	cmp    $0x2a,%al
80101c58:	75 27                	jne    80101c81 <_vsnprintf+0x1f5>
80101c5a:	8b 45 18             	mov    0x18(%ebp),%eax
80101c5d:	8d 50 04             	lea    0x4(%eax),%edx
80101c60:	89 55 18             	mov    %edx,0x18(%ebp)
80101c63:	8b 00                	mov    (%eax),%eax
80101c65:	89 45 cc             	mov    %eax,-0x34(%ebp)
80101c68:	b8 00 00 00 00       	mov    $0x0,%eax
80101c6d:	83 7d cc 00          	cmpl   $0x0,-0x34(%ebp)
80101c71:	0f 49 45 cc          	cmovns -0x34(%ebp),%eax
80101c75:	89 45 ec             	mov    %eax,-0x14(%ebp)
80101c78:	8b 45 14             	mov    0x14(%ebp),%eax
80101c7b:	83 c0 01             	add    $0x1,%eax
80101c7e:	89 45 14             	mov    %eax,0x14(%ebp)
80101c81:	8b 45 14             	mov    0x14(%ebp),%eax
80101c84:	0f b6 00             	movzbl (%eax),%eax
80101c87:	0f be c0             	movsbl %al,%eax
80101c8a:	83 e8 68             	sub    $0x68,%eax
80101c8d:	83 f8 12             	cmp    $0x12,%eax
80101c90:	0f 87 94 00 00 00    	ja     80101d2a <_vsnprintf+0x29e>
80101c96:	8b 04 85 0c 52 10 80 	mov    -0x7fefadf4(,%eax,4),%eax
80101c9d:	ff e0                	jmp    *%eax
80101c9f:	81 4d f4 00 01 00 00 	orl    $0x100,-0xc(%ebp)
80101ca6:	8b 45 14             	mov    0x14(%ebp),%eax
80101ca9:	83 c0 01             	add    $0x1,%eax
80101cac:	89 45 14             	mov    %eax,0x14(%ebp)
80101caf:	8b 45 14             	mov    0x14(%ebp),%eax
80101cb2:	0f b6 00             	movzbl (%eax),%eax
80101cb5:	3c 6c                	cmp    $0x6c,%al
80101cb7:	75 74                	jne    80101d2d <_vsnprintf+0x2a1>
80101cb9:	81 4d f4 00 02 00 00 	orl    $0x200,-0xc(%ebp)
80101cc0:	8b 45 14             	mov    0x14(%ebp),%eax
80101cc3:	83 c0 01             	add    $0x1,%eax
80101cc6:	89 45 14             	mov    %eax,0x14(%ebp)
80101cc9:	eb 62                	jmp    80101d2d <_vsnprintf+0x2a1>
80101ccb:	81 4d f4 80 00 00 00 	orl    $0x80,-0xc(%ebp)
80101cd2:	8b 45 14             	mov    0x14(%ebp),%eax
80101cd5:	83 c0 01             	add    $0x1,%eax
80101cd8:	89 45 14             	mov    %eax,0x14(%ebp)
80101cdb:	8b 45 14             	mov    0x14(%ebp),%eax
80101cde:	0f b6 00             	movzbl (%eax),%eax
80101ce1:	3c 68                	cmp    $0x68,%al
80101ce3:	75 4b                	jne    80101d30 <_vsnprintf+0x2a4>
80101ce5:	83 4d f4 40          	orl    $0x40,-0xc(%ebp)
80101ce9:	8b 45 14             	mov    0x14(%ebp),%eax
80101cec:	83 c0 01             	add    $0x1,%eax
80101cef:	89 45 14             	mov    %eax,0x14(%ebp)
80101cf2:	eb 3c                	jmp    80101d30 <_vsnprintf+0x2a4>
80101cf4:	81 4d f4 00 01 00 00 	orl    $0x100,-0xc(%ebp)
80101cfb:	8b 45 14             	mov    0x14(%ebp),%eax
80101cfe:	83 c0 01             	add    $0x1,%eax
80101d01:	89 45 14             	mov    %eax,0x14(%ebp)
80101d04:	eb 2b                	jmp    80101d31 <_vsnprintf+0x2a5>
80101d06:	81 4d f4 00 02 00 00 	orl    $0x200,-0xc(%ebp)
80101d0d:	8b 45 14             	mov    0x14(%ebp),%eax
80101d10:	83 c0 01             	add    $0x1,%eax
80101d13:	89 45 14             	mov    %eax,0x14(%ebp)
80101d16:	eb 19                	jmp    80101d31 <_vsnprintf+0x2a5>
80101d18:	81 4d f4 00 01 00 00 	orl    $0x100,-0xc(%ebp)
80101d1f:	8b 45 14             	mov    0x14(%ebp),%eax
80101d22:	83 c0 01             	add    $0x1,%eax
80101d25:	89 45 14             	mov    %eax,0x14(%ebp)
80101d28:	eb 07                	jmp    80101d31 <_vsnprintf+0x2a5>
80101d2a:	90                   	nop
80101d2b:	eb 04                	jmp    80101d31 <_vsnprintf+0x2a5>
80101d2d:	90                   	nop
80101d2e:	eb 01                	jmp    80101d31 <_vsnprintf+0x2a5>
80101d30:	90                   	nop
80101d31:	8b 45 14             	mov    0x14(%ebp),%eax
80101d34:	0f b6 00             	movzbl (%eax),%eax
80101d37:	0f be c0             	movsbl %al,%eax
80101d3a:	83 e8 25             	sub    $0x25,%eax
80101d3d:	83 f8 53             	cmp    $0x53,%eax
80101d40:	0f 87 88 04 00 00    	ja     801021ce <_vsnprintf+0x742>
80101d46:	8b 04 85 58 52 10 80 	mov    -0x7fefada8(,%eax,4),%eax
80101d4d:	ff e0                	jmp    *%eax
80101d4f:	8b 45 14             	mov    0x14(%ebp),%eax
80101d52:	0f b6 00             	movzbl (%eax),%eax
80101d55:	3c 78                	cmp    $0x78,%al
80101d57:	74 0a                	je     80101d63 <_vsnprintf+0x2d7>
80101d59:	8b 45 14             	mov    0x14(%ebp),%eax
80101d5c:	0f b6 00             	movzbl (%eax),%eax
80101d5f:	3c 58                	cmp    $0x58,%al
80101d61:	75 09                	jne    80101d6c <_vsnprintf+0x2e0>
80101d63:	c7 45 e0 10 00 00 00 	movl   $0x10,-0x20(%ebp)
80101d6a:	eb 31                	jmp    80101d9d <_vsnprintf+0x311>
80101d6c:	8b 45 14             	mov    0x14(%ebp),%eax
80101d6f:	0f b6 00             	movzbl (%eax),%eax
80101d72:	3c 6f                	cmp    $0x6f,%al
80101d74:	75 09                	jne    80101d7f <_vsnprintf+0x2f3>
80101d76:	c7 45 e0 08 00 00 00 	movl   $0x8,-0x20(%ebp)
80101d7d:	eb 1e                	jmp    80101d9d <_vsnprintf+0x311>
80101d7f:	8b 45 14             	mov    0x14(%ebp),%eax
80101d82:	0f b6 00             	movzbl (%eax),%eax
80101d85:	3c 62                	cmp    $0x62,%al
80101d87:	75 09                	jne    80101d92 <_vsnprintf+0x306>
80101d89:	c7 45 e0 02 00 00 00 	movl   $0x2,-0x20(%ebp)
80101d90:	eb 0b                	jmp    80101d9d <_vsnprintf+0x311>
80101d92:	c7 45 e0 0a 00 00 00 	movl   $0xa,-0x20(%ebp)
80101d99:	83 65 f4 ef          	andl   $0xffffffef,-0xc(%ebp)
80101d9d:	8b 45 14             	mov    0x14(%ebp),%eax
80101da0:	0f b6 00             	movzbl (%eax),%eax
80101da3:	3c 58                	cmp    $0x58,%al
80101da5:	75 04                	jne    80101dab <_vsnprintf+0x31f>
80101da7:	83 4d f4 20          	orl    $0x20,-0xc(%ebp)
80101dab:	8b 45 14             	mov    0x14(%ebp),%eax
80101dae:	0f b6 00             	movzbl (%eax),%eax
80101db1:	3c 69                	cmp    $0x69,%al
80101db3:	74 0e                	je     80101dc3 <_vsnprintf+0x337>
80101db5:	8b 45 14             	mov    0x14(%ebp),%eax
80101db8:	0f b6 00             	movzbl (%eax),%eax
80101dbb:	3c 64                	cmp    $0x64,%al
80101dbd:	74 04                	je     80101dc3 <_vsnprintf+0x337>
80101dbf:	83 65 f4 f3          	andl   $0xfffffff3,-0xc(%ebp)
80101dc3:	8b 45 f4             	mov    -0xc(%ebp),%eax
80101dc6:	25 00 04 00 00       	and    $0x400,%eax
80101dcb:	85 c0                	test   %eax,%eax
80101dcd:	74 04                	je     80101dd3 <_vsnprintf+0x347>
80101dcf:	83 65 f4 fe          	andl   $0xfffffffe,-0xc(%ebp)
80101dd3:	8b 45 14             	mov    0x14(%ebp),%eax
80101dd6:	0f b6 00             	movzbl (%eax),%eax
80101dd9:	3c 69                	cmp    $0x69,%al
80101ddb:	74 0e                	je     80101deb <_vsnprintf+0x35f>
80101ddd:	8b 45 14             	mov    0x14(%ebp),%eax
80101de0:	0f b6 00             	movzbl (%eax),%eax
80101de3:	3c 64                	cmp    $0x64,%al
80101de5:	0f 85 f6 00 00 00    	jne    80101ee1 <_vsnprintf+0x455>
80101deb:	8b 45 f4             	mov    -0xc(%ebp),%eax
80101dee:	25 00 02 00 00       	and    $0x200,%eax
80101df3:	85 c0                	test   %eax,%eax
80101df5:	0f 85 a7 01 00 00    	jne    80101fa2 <_vsnprintf+0x516>
80101dfb:	8b 45 f4             	mov    -0xc(%ebp),%eax
80101dfe:	25 00 01 00 00       	and    $0x100,%eax
80101e03:	85 c0                	test   %eax,%eax
80101e05:	74 53                	je     80101e5a <_vsnprintf+0x3ce>
80101e07:	8b 45 18             	mov    0x18(%ebp),%eax
80101e0a:	8d 50 04             	lea    0x4(%eax),%edx
80101e0d:	89 55 18             	mov    %edx,0x18(%ebp)
80101e10:	8b 00                	mov    (%eax),%eax
80101e12:	89 45 c0             	mov    %eax,-0x40(%ebp)
80101e15:	8b 45 c0             	mov    -0x40(%ebp),%eax
80101e18:	c1 e8 1f             	shr    $0x1f,%eax
80101e1b:	0f b6 d0             	movzbl %al,%edx
80101e1e:	8b 45 c0             	mov    -0x40(%ebp),%eax
80101e21:	c1 f8 1f             	sar    $0x1f,%eax
80101e24:	89 c1                	mov    %eax,%ecx
80101e26:	89 c8                	mov    %ecx,%eax
80101e28:	33 45 c0             	xor    -0x40(%ebp),%eax
80101e2b:	29 c8                	sub    %ecx,%eax
80101e2d:	83 ec 08             	sub    $0x8,%esp
80101e30:	ff 75 f4             	pushl  -0xc(%ebp)
80101e33:	ff 75 f0             	pushl  -0x10(%ebp)
80101e36:	ff 75 ec             	pushl  -0x14(%ebp)
80101e39:	ff 75 e0             	pushl  -0x20(%ebp)
80101e3c:	52                   	push   %edx
80101e3d:	50                   	push   %eax
80101e3e:	ff 75 10             	pushl  0x10(%ebp)
80101e41:	ff 75 e4             	pushl  -0x1c(%ebp)
80101e44:	ff 75 0c             	pushl  0xc(%ebp)
80101e47:	ff 75 08             	pushl  0x8(%ebp)
80101e4a:	e8 74 fb ff ff       	call   801019c3 <_ntoa_long>
80101e4f:	83 c4 30             	add    $0x30,%esp
80101e52:	89 45 e4             	mov    %eax,-0x1c(%ebp)
80101e55:	e9 48 01 00 00       	jmp    80101fa2 <_vsnprintf+0x516>
80101e5a:	8b 45 f4             	mov    -0xc(%ebp),%eax
80101e5d:	83 e0 40             	and    $0x40,%eax
80101e60:	85 c0                	test   %eax,%eax
80101e62:	74 10                	je     80101e74 <_vsnprintf+0x3e8>
80101e64:	8b 45 18             	mov    0x18(%ebp),%eax
80101e67:	8d 50 04             	lea    0x4(%eax),%edx
80101e6a:	89 55 18             	mov    %edx,0x18(%ebp)
80101e6d:	8b 00                	mov    (%eax),%eax
80101e6f:	0f be c0             	movsbl %al,%eax
80101e72:	eb 25                	jmp    80101e99 <_vsnprintf+0x40d>
80101e74:	8b 45 f4             	mov    -0xc(%ebp),%eax
80101e77:	25 80 00 00 00       	and    $0x80,%eax
80101e7c:	85 c0                	test   %eax,%eax
80101e7e:	74 0e                	je     80101e8e <_vsnprintf+0x402>
80101e80:	8b 45 18             	mov    0x18(%ebp),%eax
80101e83:	8d 50 04             	lea    0x4(%eax),%edx
80101e86:	89 55 18             	mov    %edx,0x18(%ebp)
80101e89:	8b 00                	mov    (%eax),%eax
80101e8b:	98                   	cwtl   
80101e8c:	eb 0b                	jmp    80101e99 <_vsnprintf+0x40d>
80101e8e:	8b 45 18             	mov    0x18(%ebp),%eax
80101e91:	8d 50 04             	lea    0x4(%eax),%edx
80101e94:	89 55 18             	mov    %edx,0x18(%ebp)
80101e97:	8b 00                	mov    (%eax),%eax
80101e99:	89 45 c4             	mov    %eax,-0x3c(%ebp)
80101e9c:	8b 45 c4             	mov    -0x3c(%ebp),%eax
80101e9f:	c1 e8 1f             	shr    $0x1f,%eax
80101ea2:	0f b6 d0             	movzbl %al,%edx
80101ea5:	8b 45 c4             	mov    -0x3c(%ebp),%eax
80101ea8:	c1 f8 1f             	sar    $0x1f,%eax
80101eab:	89 c1                	mov    %eax,%ecx
80101ead:	89 c8                	mov    %ecx,%eax
80101eaf:	33 45 c4             	xor    -0x3c(%ebp),%eax
80101eb2:	29 c8                	sub    %ecx,%eax
80101eb4:	83 ec 08             	sub    $0x8,%esp
80101eb7:	ff 75 f4             	pushl  -0xc(%ebp)
80101eba:	ff 75 f0             	pushl  -0x10(%ebp)
80101ebd:	ff 75 ec             	pushl  -0x14(%ebp)
80101ec0:	ff 75 e0             	pushl  -0x20(%ebp)
80101ec3:	52                   	push   %edx
80101ec4:	50                   	push   %eax
80101ec5:	ff 75 10             	pushl  0x10(%ebp)
80101ec8:	ff 75 e4             	pushl  -0x1c(%ebp)
80101ecb:	ff 75 0c             	pushl  0xc(%ebp)
80101ece:	ff 75 08             	pushl  0x8(%ebp)
80101ed1:	e8 ed fa ff ff       	call   801019c3 <_ntoa_long>
80101ed6:	83 c4 30             	add    $0x30,%esp
80101ed9:	89 45 e4             	mov    %eax,-0x1c(%ebp)
80101edc:	e9 c1 00 00 00       	jmp    80101fa2 <_vsnprintf+0x516>
80101ee1:	8b 45 f4             	mov    -0xc(%ebp),%eax
80101ee4:	25 00 02 00 00       	and    $0x200,%eax
80101ee9:	85 c0                	test   %eax,%eax
80101eeb:	0f 85 b1 00 00 00    	jne    80101fa2 <_vsnprintf+0x516>
80101ef1:	8b 45 f4             	mov    -0xc(%ebp),%eax
80101ef4:	25 00 01 00 00       	and    $0x100,%eax
80101ef9:	85 c0                	test   %eax,%eax
80101efb:	74 36                	je     80101f33 <_vsnprintf+0x4a7>
80101efd:	8b 45 18             	mov    0x18(%ebp),%eax
80101f00:	8d 50 04             	lea    0x4(%eax),%edx
80101f03:	89 55 18             	mov    %edx,0x18(%ebp)
80101f06:	8b 00                	mov    (%eax),%eax
80101f08:	83 ec 08             	sub    $0x8,%esp
80101f0b:	ff 75 f4             	pushl  -0xc(%ebp)
80101f0e:	ff 75 f0             	pushl  -0x10(%ebp)
80101f11:	ff 75 ec             	pushl  -0x14(%ebp)
80101f14:	ff 75 e0             	pushl  -0x20(%ebp)
80101f17:	6a 00                	push   $0x0
80101f19:	50                   	push   %eax
80101f1a:	ff 75 10             	pushl  0x10(%ebp)
80101f1d:	ff 75 e4             	pushl  -0x1c(%ebp)
80101f20:	ff 75 0c             	pushl  0xc(%ebp)
80101f23:	ff 75 08             	pushl  0x8(%ebp)
80101f26:	e8 98 fa ff ff       	call   801019c3 <_ntoa_long>
80101f2b:	83 c4 30             	add    $0x30,%esp
80101f2e:	89 45 e4             	mov    %eax,-0x1c(%ebp)
80101f31:	eb 6f                	jmp    80101fa2 <_vsnprintf+0x516>
80101f33:	8b 45 f4             	mov    -0xc(%ebp),%eax
80101f36:	83 e0 40             	and    $0x40,%eax
80101f39:	85 c0                	test   %eax,%eax
80101f3b:	74 10                	je     80101f4d <_vsnprintf+0x4c1>
80101f3d:	8b 45 18             	mov    0x18(%ebp),%eax
80101f40:	8d 50 04             	lea    0x4(%eax),%edx
80101f43:	89 55 18             	mov    %edx,0x18(%ebp)
80101f46:	8b 00                	mov    (%eax),%eax
80101f48:	0f b6 c0             	movzbl %al,%eax
80101f4b:	eb 27                	jmp    80101f74 <_vsnprintf+0x4e8>
80101f4d:	8b 45 f4             	mov    -0xc(%ebp),%eax
80101f50:	25 80 00 00 00       	and    $0x80,%eax
80101f55:	85 c0                	test   %eax,%eax
80101f57:	74 10                	je     80101f69 <_vsnprintf+0x4dd>
80101f59:	8b 45 18             	mov    0x18(%ebp),%eax
80101f5c:	8d 50 04             	lea    0x4(%eax),%edx
80101f5f:	89 55 18             	mov    %edx,0x18(%ebp)
80101f62:	8b 00                	mov    (%eax),%eax
80101f64:	0f b7 c0             	movzwl %ax,%eax
80101f67:	eb 0b                	jmp    80101f74 <_vsnprintf+0x4e8>
80101f69:	8b 45 18             	mov    0x18(%ebp),%eax
80101f6c:	8d 50 04             	lea    0x4(%eax),%edx
80101f6f:	89 55 18             	mov    %edx,0x18(%ebp)
80101f72:	8b 00                	mov    (%eax),%eax
80101f74:	89 45 c8             	mov    %eax,-0x38(%ebp)
80101f77:	83 ec 08             	sub    $0x8,%esp
80101f7a:	ff 75 f4             	pushl  -0xc(%ebp)
80101f7d:	ff 75 f0             	pushl  -0x10(%ebp)
80101f80:	ff 75 ec             	pushl  -0x14(%ebp)
80101f83:	ff 75 e0             	pushl  -0x20(%ebp)
80101f86:	6a 00                	push   $0x0
80101f88:	ff 75 c8             	pushl  -0x38(%ebp)
80101f8b:	ff 75 10             	pushl  0x10(%ebp)
80101f8e:	ff 75 e4             	pushl  -0x1c(%ebp)
80101f91:	ff 75 0c             	pushl  0xc(%ebp)
80101f94:	ff 75 08             	pushl  0x8(%ebp)
80101f97:	e8 27 fa ff ff       	call   801019c3 <_ntoa_long>
80101f9c:	83 c4 30             	add    $0x30,%esp
80101f9f:	89 45 e4             	mov    %eax,-0x1c(%ebp)
80101fa2:	8b 45 14             	mov    0x14(%ebp),%eax
80101fa5:	83 c0 01             	add    $0x1,%eax
80101fa8:	89 45 14             	mov    %eax,0x14(%ebp)
80101fab:	e9 4a 02 00 00       	jmp    801021fa <_vsnprintf+0x76e>
80101fb0:	c7 45 dc 01 00 00 00 	movl   $0x1,-0x24(%ebp)
80101fb7:	8b 45 f4             	mov    -0xc(%ebp),%eax
80101fba:	83 e0 02             	and    $0x2,%eax
80101fbd:	85 c0                	test   %eax,%eax
80101fbf:	75 2a                	jne    80101feb <_vsnprintf+0x55f>
80101fc1:	eb 1a                	jmp    80101fdd <_vsnprintf+0x551>
80101fc3:	8b 45 e4             	mov    -0x1c(%ebp),%eax
80101fc6:	8d 50 01             	lea    0x1(%eax),%edx
80101fc9:	89 55 e4             	mov    %edx,-0x1c(%ebp)
80101fcc:	ff 75 10             	pushl  0x10(%ebp)
80101fcf:	50                   	push   %eax
80101fd0:	ff 75 0c             	pushl  0xc(%ebp)
80101fd3:	6a 20                	push   $0x20
80101fd5:	8b 45 08             	mov    0x8(%ebp),%eax
80101fd8:	ff d0                	call   *%eax
80101fda:	83 c4 10             	add    $0x10,%esp
80101fdd:	8b 45 dc             	mov    -0x24(%ebp),%eax
80101fe0:	8d 50 01             	lea    0x1(%eax),%edx
80101fe3:	89 55 dc             	mov    %edx,-0x24(%ebp)
80101fe6:	39 45 f0             	cmp    %eax,-0x10(%ebp)
80101fe9:	77 d8                	ja     80101fc3 <_vsnprintf+0x537>
80101feb:	8b 45 e4             	mov    -0x1c(%ebp),%eax
80101fee:	8d 50 01             	lea    0x1(%eax),%edx
80101ff1:	89 55 e4             	mov    %edx,-0x1c(%ebp)
80101ff4:	8b 55 18             	mov    0x18(%ebp),%edx
80101ff7:	8d 4a 04             	lea    0x4(%edx),%ecx
80101ffa:	89 4d 18             	mov    %ecx,0x18(%ebp)
80101ffd:	8b 12                	mov    (%edx),%edx
80101fff:	0f be d2             	movsbl %dl,%edx
80102002:	ff 75 10             	pushl  0x10(%ebp)
80102005:	50                   	push   %eax
80102006:	ff 75 0c             	pushl  0xc(%ebp)
80102009:	52                   	push   %edx
8010200a:	8b 45 08             	mov    0x8(%ebp),%eax
8010200d:	ff d0                	call   *%eax
8010200f:	83 c4 10             	add    $0x10,%esp
80102012:	8b 45 f4             	mov    -0xc(%ebp),%eax
80102015:	83 e0 02             	and    $0x2,%eax
80102018:	85 c0                	test   %eax,%eax
8010201a:	74 2a                	je     80102046 <_vsnprintf+0x5ba>
8010201c:	eb 1a                	jmp    80102038 <_vsnprintf+0x5ac>
8010201e:	8b 45 e4             	mov    -0x1c(%ebp),%eax
80102021:	8d 50 01             	lea    0x1(%eax),%edx
80102024:	89 55 e4             	mov    %edx,-0x1c(%ebp)
80102027:	ff 75 10             	pushl  0x10(%ebp)
8010202a:	50                   	push   %eax
8010202b:	ff 75 0c             	pushl  0xc(%ebp)
8010202e:	6a 20                	push   $0x20
80102030:	8b 45 08             	mov    0x8(%ebp),%eax
80102033:	ff d0                	call   *%eax
80102035:	83 c4 10             	add    $0x10,%esp
80102038:	8b 45 dc             	mov    -0x24(%ebp),%eax
8010203b:	8d 50 01             	lea    0x1(%eax),%edx
8010203e:	89 55 dc             	mov    %edx,-0x24(%ebp)
80102041:	39 45 f0             	cmp    %eax,-0x10(%ebp)
80102044:	77 d8                	ja     8010201e <_vsnprintf+0x592>
80102046:	8b 45 14             	mov    0x14(%ebp),%eax
80102049:	83 c0 01             	add    $0x1,%eax
8010204c:	89 45 14             	mov    %eax,0x14(%ebp)
8010204f:	e9 a6 01 00 00       	jmp    801021fa <_vsnprintf+0x76e>
80102054:	8b 45 18             	mov    0x18(%ebp),%eax
80102057:	8d 50 04             	lea    0x4(%eax),%edx
8010205a:	89 55 18             	mov    %edx,0x18(%ebp)
8010205d:	8b 00                	mov    (%eax),%eax
8010205f:	89 45 d8             	mov    %eax,-0x28(%ebp)
80102062:	83 7d ec 00          	cmpl   $0x0,-0x14(%ebp)
80102066:	74 05                	je     8010206d <_vsnprintf+0x5e1>
80102068:	8b 45 ec             	mov    -0x14(%ebp),%eax
8010206b:	eb 05                	jmp    80102072 <_vsnprintf+0x5e6>
8010206d:	b8 ff ff ff ff       	mov    $0xffffffff,%eax
80102072:	83 ec 08             	sub    $0x8,%esp
80102075:	50                   	push   %eax
80102076:	ff 75 d8             	pushl  -0x28(%ebp)
80102079:	e8 12 f6 ff ff       	call   80101690 <_strnlen_s>
8010207e:	83 c4 10             	add    $0x10,%esp
80102081:	89 45 d4             	mov    %eax,-0x2c(%ebp)
80102084:	8b 45 f4             	mov    -0xc(%ebp),%eax
80102087:	25 00 04 00 00       	and    $0x400,%eax
8010208c:	85 c0                	test   %eax,%eax
8010208e:	74 0d                	je     8010209d <_vsnprintf+0x611>
80102090:	8b 45 d4             	mov    -0x2c(%ebp),%eax
80102093:	39 45 ec             	cmp    %eax,-0x14(%ebp)
80102096:	0f 46 45 ec          	cmovbe -0x14(%ebp),%eax
8010209a:	89 45 d4             	mov    %eax,-0x2c(%ebp)
8010209d:	8b 45 f4             	mov    -0xc(%ebp),%eax
801020a0:	83 e0 02             	and    $0x2,%eax
801020a3:	85 c0                	test   %eax,%eax
801020a5:	75 54                	jne    801020fb <_vsnprintf+0x66f>
801020a7:	eb 1a                	jmp    801020c3 <_vsnprintf+0x637>
801020a9:	8b 45 e4             	mov    -0x1c(%ebp),%eax
801020ac:	8d 50 01             	lea    0x1(%eax),%edx
801020af:	89 55 e4             	mov    %edx,-0x1c(%ebp)
801020b2:	ff 75 10             	pushl  0x10(%ebp)
801020b5:	50                   	push   %eax
801020b6:	ff 75 0c             	pushl  0xc(%ebp)
801020b9:	6a 20                	push   $0x20
801020bb:	8b 45 08             	mov    0x8(%ebp),%eax
801020be:	ff d0                	call   *%eax
801020c0:	83 c4 10             	add    $0x10,%esp
801020c3:	8b 45 d4             	mov    -0x2c(%ebp),%eax
801020c6:	8d 50 01             	lea    0x1(%eax),%edx
801020c9:	89 55 d4             	mov    %edx,-0x2c(%ebp)
801020cc:	39 45 f0             	cmp    %eax,-0x10(%ebp)
801020cf:	77 d8                	ja     801020a9 <_vsnprintf+0x61d>
801020d1:	eb 28                	jmp    801020fb <_vsnprintf+0x66f>
801020d3:	8b 45 e4             	mov    -0x1c(%ebp),%eax
801020d6:	8d 50 01             	lea    0x1(%eax),%edx
801020d9:	89 55 e4             	mov    %edx,-0x1c(%ebp)
801020dc:	8b 55 d8             	mov    -0x28(%ebp),%edx
801020df:	8d 4a 01             	lea    0x1(%edx),%ecx
801020e2:	89 4d d8             	mov    %ecx,-0x28(%ebp)
801020e5:	0f b6 12             	movzbl (%edx),%edx
801020e8:	0f be d2             	movsbl %dl,%edx
801020eb:	ff 75 10             	pushl  0x10(%ebp)
801020ee:	50                   	push   %eax
801020ef:	ff 75 0c             	pushl  0xc(%ebp)
801020f2:	52                   	push   %edx
801020f3:	8b 45 08             	mov    0x8(%ebp),%eax
801020f6:	ff d0                	call   *%eax
801020f8:	83 c4 10             	add    $0x10,%esp
801020fb:	8b 45 d8             	mov    -0x28(%ebp),%eax
801020fe:	0f b6 00             	movzbl (%eax),%eax
80102101:	84 c0                	test   %al,%al
80102103:	74 19                	je     8010211e <_vsnprintf+0x692>
80102105:	8b 45 f4             	mov    -0xc(%ebp),%eax
80102108:	25 00 04 00 00       	and    $0x400,%eax
8010210d:	85 c0                	test   %eax,%eax
8010210f:	74 c2                	je     801020d3 <_vsnprintf+0x647>
80102111:	8b 45 ec             	mov    -0x14(%ebp),%eax
80102114:	8d 50 ff             	lea    -0x1(%eax),%edx
80102117:	89 55 ec             	mov    %edx,-0x14(%ebp)
8010211a:	85 c0                	test   %eax,%eax
8010211c:	75 b5                	jne    801020d3 <_vsnprintf+0x647>
8010211e:	8b 45 f4             	mov    -0xc(%ebp),%eax
80102121:	83 e0 02             	and    $0x2,%eax
80102124:	85 c0                	test   %eax,%eax
80102126:	74 2a                	je     80102152 <_vsnprintf+0x6c6>
80102128:	eb 1a                	jmp    80102144 <_vsnprintf+0x6b8>
8010212a:	8b 45 e4             	mov    -0x1c(%ebp),%eax
8010212d:	8d 50 01             	lea    0x1(%eax),%edx
80102130:	89 55 e4             	mov    %edx,-0x1c(%ebp)
80102133:	ff 75 10             	pushl  0x10(%ebp)
80102136:	50                   	push   %eax
80102137:	ff 75 0c             	pushl  0xc(%ebp)
8010213a:	6a 20                	push   $0x20
8010213c:	8b 45 08             	mov    0x8(%ebp),%eax
8010213f:	ff d0                	call   *%eax
80102141:	83 c4 10             	add    $0x10,%esp
80102144:	8b 45 d4             	mov    -0x2c(%ebp),%eax
80102147:	8d 50 01             	lea    0x1(%eax),%edx
8010214a:	89 55 d4             	mov    %edx,-0x2c(%ebp)
8010214d:	39 45 f0             	cmp    %eax,-0x10(%ebp)
80102150:	77 d8                	ja     8010212a <_vsnprintf+0x69e>
80102152:	8b 45 14             	mov    0x14(%ebp),%eax
80102155:	83 c0 01             	add    $0x1,%eax
80102158:	89 45 14             	mov    %eax,0x14(%ebp)
8010215b:	e9 9a 00 00 00       	jmp    801021fa <_vsnprintf+0x76e>
80102160:	c7 45 f0 08 00 00 00 	movl   $0x8,-0x10(%ebp)
80102167:	83 4d f4 21          	orl    $0x21,-0xc(%ebp)
8010216b:	8b 45 18             	mov    0x18(%ebp),%eax
8010216e:	8d 50 04             	lea    0x4(%eax),%edx
80102171:	89 55 18             	mov    %edx,0x18(%ebp)
80102174:	8b 00                	mov    (%eax),%eax
80102176:	83 ec 08             	sub    $0x8,%esp
80102179:	ff 75 f4             	pushl  -0xc(%ebp)
8010217c:	ff 75 f0             	pushl  -0x10(%ebp)
8010217f:	ff 75 ec             	pushl  -0x14(%ebp)
80102182:	6a 10                	push   $0x10
80102184:	6a 00                	push   $0x0
80102186:	50                   	push   %eax
80102187:	ff 75 10             	pushl  0x10(%ebp)
8010218a:	ff 75 e4             	pushl  -0x1c(%ebp)
8010218d:	ff 75 0c             	pushl  0xc(%ebp)
80102190:	ff 75 08             	pushl  0x8(%ebp)
80102193:	e8 2b f8 ff ff       	call   801019c3 <_ntoa_long>
80102198:	83 c4 30             	add    $0x30,%esp
8010219b:	89 45 e4             	mov    %eax,-0x1c(%ebp)
8010219e:	8b 45 14             	mov    0x14(%ebp),%eax
801021a1:	83 c0 01             	add    $0x1,%eax
801021a4:	89 45 14             	mov    %eax,0x14(%ebp)
801021a7:	eb 51                	jmp    801021fa <_vsnprintf+0x76e>
801021a9:	8b 45 e4             	mov    -0x1c(%ebp),%eax
801021ac:	8d 50 01             	lea    0x1(%eax),%edx
801021af:	89 55 e4             	mov    %edx,-0x1c(%ebp)
801021b2:	ff 75 10             	pushl  0x10(%ebp)
801021b5:	50                   	push   %eax
801021b6:	ff 75 0c             	pushl  0xc(%ebp)
801021b9:	6a 25                	push   $0x25
801021bb:	8b 45 08             	mov    0x8(%ebp),%eax
801021be:	ff d0                	call   *%eax
801021c0:	83 c4 10             	add    $0x10,%esp
801021c3:	8b 45 14             	mov    0x14(%ebp),%eax
801021c6:	83 c0 01             	add    $0x1,%eax
801021c9:	89 45 14             	mov    %eax,0x14(%ebp)
801021cc:	eb 2c                	jmp    801021fa <_vsnprintf+0x76e>
801021ce:	8b 45 e4             	mov    -0x1c(%ebp),%eax
801021d1:	8d 50 01             	lea    0x1(%eax),%edx
801021d4:	89 55 e4             	mov    %edx,-0x1c(%ebp)
801021d7:	8b 55 14             	mov    0x14(%ebp),%edx
801021da:	0f b6 12             	movzbl (%edx),%edx
801021dd:	0f be d2             	movsbl %dl,%edx
801021e0:	ff 75 10             	pushl  0x10(%ebp)
801021e3:	50                   	push   %eax
801021e4:	ff 75 0c             	pushl  0xc(%ebp)
801021e7:	52                   	push   %edx
801021e8:	8b 45 08             	mov    0x8(%ebp),%eax
801021eb:	ff d0                	call   *%eax
801021ed:	83 c4 10             	add    $0x10,%esp
801021f0:	8b 45 14             	mov    0x14(%ebp),%eax
801021f3:	83 c0 01             	add    $0x1,%eax
801021f6:	89 45 14             	mov    %eax,0x14(%ebp)
801021f9:	90                   	nop
801021fa:	8b 45 14             	mov    0x14(%ebp),%eax
801021fd:	0f b6 00             	movzbl (%eax),%eax
80102200:	84 c0                	test   %al,%al
80102202:	0f 85 a7 f8 ff ff    	jne    80101aaf <_vsnprintf+0x23>
80102208:	8b 45 e4             	mov    -0x1c(%ebp),%eax
8010220b:	3b 45 10             	cmp    0x10(%ebp),%eax
8010220e:	72 08                	jb     80102218 <_vsnprintf+0x78c>
80102210:	8b 45 10             	mov    0x10(%ebp),%eax
80102213:	83 e8 01             	sub    $0x1,%eax
80102216:	eb 03                	jmp    8010221b <_vsnprintf+0x78f>
80102218:	8b 45 e4             	mov    -0x1c(%ebp),%eax
8010221b:	ff 75 10             	pushl  0x10(%ebp)
8010221e:	50                   	push   %eax
8010221f:	ff 75 0c             	pushl  0xc(%ebp)
80102222:	6a 00                	push   $0x0
80102224:	8b 45 08             	mov    0x8(%ebp),%eax
80102227:	ff d0                	call   *%eax
80102229:	83 c4 10             	add    $0x10,%esp
8010222c:	8b 45 e4             	mov    -0x1c(%ebp),%eax
8010222f:	c9                   	leave  
80102230:	c3                   	ret    

80102231 <printf_>:
80102231:	55                   	push   %ebp
80102232:	89 e5                	mov    %esp,%ebp
80102234:	83 ec 18             	sub    $0x18,%esp
80102237:	8d 45 0c             	lea    0xc(%ebp),%eax
8010223a:	89 45 f0             	mov    %eax,-0x10(%ebp)
8010223d:	8b 45 f0             	mov    -0x10(%ebp),%eax
80102240:	83 ec 0c             	sub    $0xc,%esp
80102243:	50                   	push   %eax
80102244:	ff 75 08             	pushl  0x8(%ebp)
80102247:	6a ff                	push   $0xffffffff
80102249:	8d 45 ef             	lea    -0x11(%ebp),%eax
8010224c:	50                   	push   %eax
8010224d:	68 3d 16 10 80       	push   $0x8010163d
80102252:	e8 35 f8 ff ff       	call   80101a8c <_vsnprintf>
80102257:	83 c4 20             	add    $0x20,%esp
8010225a:	89 45 f4             	mov    %eax,-0xc(%ebp)
8010225d:	8b 45 f4             	mov    -0xc(%ebp),%eax
80102260:	c9                   	leave  
80102261:	c3                   	ret    

80102262 <sprintf_>:
80102262:	55                   	push   %ebp
80102263:	89 e5                	mov    %esp,%ebp
80102265:	83 ec 18             	sub    $0x18,%esp
80102268:	8d 45 10             	lea    0x10(%ebp),%eax
8010226b:	89 45 f0             	mov    %eax,-0x10(%ebp)
8010226e:	8b 45 f0             	mov    -0x10(%ebp),%eax
80102271:	83 ec 0c             	sub    $0xc,%esp
80102274:	50                   	push   %eax
80102275:	ff 75 0c             	pushl  0xc(%ebp)
80102278:	6a ff                	push   $0xffffffff
8010227a:	ff 75 08             	pushl  0x8(%ebp)
8010227d:	68 09 16 10 80       	push   $0x80101609
80102282:	e8 05 f8 ff ff       	call   80101a8c <_vsnprintf>
80102287:	83 c4 20             	add    $0x20,%esp
8010228a:	89 45 f4             	mov    %eax,-0xc(%ebp)
8010228d:	8b 45 f4             	mov    -0xc(%ebp),%eax
80102290:	c9                   	leave  
80102291:	c3                   	ret    

80102292 <snprintf_>:
80102292:	55                   	push   %ebp
80102293:	89 e5                	mov    %esp,%ebp
80102295:	83 ec 18             	sub    $0x18,%esp
80102298:	8d 45 14             	lea    0x14(%ebp),%eax
8010229b:	89 45 f0             	mov    %eax,-0x10(%ebp)
8010229e:	8b 45 f0             	mov    -0x10(%ebp),%eax
801022a1:	83 ec 0c             	sub    $0xc,%esp
801022a4:	50                   	push   %eax
801022a5:	ff 75 10             	pushl  0x10(%ebp)
801022a8:	ff 75 0c             	pushl  0xc(%ebp)
801022ab:	ff 75 08             	pushl  0x8(%ebp)
801022ae:	68 09 16 10 80       	push   $0x80101609
801022b3:	e8 d4 f7 ff ff       	call   80101a8c <_vsnprintf>
801022b8:	83 c4 20             	add    $0x20,%esp
801022bb:	89 45 f4             	mov    %eax,-0xc(%ebp)
801022be:	8b 45 f4             	mov    -0xc(%ebp),%eax
801022c1:	c9                   	leave  
801022c2:	c3                   	ret    

801022c3 <vprintf_>:
801022c3:	55                   	push   %ebp
801022c4:	89 e5                	mov    %esp,%ebp
801022c6:	83 ec 18             	sub    $0x18,%esp
801022c9:	83 ec 0c             	sub    $0xc,%esp
801022cc:	ff 75 0c             	pushl  0xc(%ebp)
801022cf:	ff 75 08             	pushl  0x8(%ebp)
801022d2:	6a ff                	push   $0xffffffff
801022d4:	8d 45 f7             	lea    -0x9(%ebp),%eax
801022d7:	50                   	push   %eax
801022d8:	68 3d 16 10 80       	push   $0x8010163d
801022dd:	e8 aa f7 ff ff       	call   80101a8c <_vsnprintf>
801022e2:	83 c4 20             	add    $0x20,%esp
801022e5:	c9                   	leave  
801022e6:	c3                   	ret    

801022e7 <vsnprintf_>:
801022e7:	55                   	push   %ebp
801022e8:	89 e5                	mov    %esp,%ebp
801022ea:	83 ec 08             	sub    $0x8,%esp
801022ed:	83 ec 0c             	sub    $0xc,%esp
801022f0:	ff 75 14             	pushl  0x14(%ebp)
801022f3:	ff 75 10             	pushl  0x10(%ebp)
801022f6:	ff 75 0c             	pushl  0xc(%ebp)
801022f9:	ff 75 08             	pushl  0x8(%ebp)
801022fc:	68 09 16 10 80       	push   $0x80101609
80102301:	e8 86 f7 ff ff       	call   80101a8c <_vsnprintf>
80102306:	83 c4 20             	add    $0x20,%esp
80102309:	c9                   	leave  
8010230a:	c3                   	ret    

8010230b <fctprintf>:
8010230b:	55                   	push   %ebp
8010230c:	89 e5                	mov    %esp,%ebp
8010230e:	83 ec 18             	sub    $0x18,%esp
80102311:	8d 45 14             	lea    0x14(%ebp),%eax
80102314:	89 45 f0             	mov    %eax,-0x10(%ebp)
80102317:	8b 45 08             	mov    0x8(%ebp),%eax
8010231a:	89 45 e8             	mov    %eax,-0x18(%ebp)
8010231d:	8b 45 0c             	mov    0xc(%ebp),%eax
80102320:	89 45 ec             	mov    %eax,-0x14(%ebp)
80102323:	8b 45 f0             	mov    -0x10(%ebp),%eax
80102326:	83 ec 0c             	sub    $0xc,%esp
80102329:	50                   	push   %eax
8010232a:	ff 75 10             	pushl  0x10(%ebp)
8010232d:	6a ff                	push   $0xffffffff
8010232f:	8d 45 e8             	lea    -0x18(%ebp),%eax
80102332:	50                   	push   %eax
80102333:	68 62 16 10 80       	push   $0x80101662
80102338:	e8 4f f7 ff ff       	call   80101a8c <_vsnprintf>
8010233d:	83 c4 20             	add    $0x20,%esp
80102340:	89 45 f4             	mov    %eax,-0xc(%ebp)
80102343:	8b 45 f4             	mov    -0xc(%ebp),%eax
80102346:	c9                   	leave  
80102347:	c3                   	ret    

80102348 <outb>:
80102348:	55                   	push   %ebp
80102349:	89 e5                	mov    %esp,%ebp
8010234b:	83 ec 08             	sub    $0x8,%esp
8010234e:	8b 45 08             	mov    0x8(%ebp),%eax
80102351:	8b 55 0c             	mov    0xc(%ebp),%edx
80102354:	66 89 45 fc          	mov    %ax,-0x4(%ebp)
80102358:	89 d0                	mov    %edx,%eax
8010235a:	88 45 f8             	mov    %al,-0x8(%ebp)
8010235d:	0f b6 45 f8          	movzbl -0x8(%ebp),%eax
80102361:	0f b7 55 fc          	movzwl -0x4(%ebp),%edx
80102365:	ee                   	out    %al,(%dx)
80102366:	90                   	nop
80102367:	c9                   	leave  
80102368:	c3                   	ret    

80102369 <inb>:
80102369:	55                   	push   %ebp
8010236a:	89 e5                	mov    %esp,%ebp
8010236c:	83 ec 14             	sub    $0x14,%esp
8010236f:	8b 45 08             	mov    0x8(%ebp),%eax
80102372:	66 89 45 ec          	mov    %ax,-0x14(%ebp)
80102376:	0f b7 45 ec          	movzwl -0x14(%ebp),%eax
8010237a:	89 c2                	mov    %eax,%edx
8010237c:	ec                   	in     (%dx),%al
8010237d:	88 45 ff             	mov    %al,-0x1(%ebp)
80102380:	0f b6 45 ff          	movzbl -0x1(%ebp),%eax
80102384:	c9                   	leave  
80102385:	c3                   	ret    

80102386 <lapic_write>:
80102386:	55                   	push   %ebp
80102387:	89 e5                	mov    %esp,%ebp
80102389:	8b 15 a8 06 11 80    	mov    0x801106a8,%edx
8010238f:	8b 45 08             	mov    0x8(%ebp),%eax
80102392:	83 e0 fc             	and    $0xfffffffc,%eax
80102395:	01 c2                	add    %eax,%edx
80102397:	8b 45 0c             	mov    0xc(%ebp),%eax
8010239a:	89 02                	mov    %eax,(%edx)
8010239c:	a1 a8 06 11 80       	mov    0x801106a8,%eax
801023a1:	8b 00                	mov    (%eax),%eax
801023a3:	90                   	nop
801023a4:	5d                   	pop    %ebp
801023a5:	c3                   	ret    

801023a6 <lapic_read>:
801023a6:	55                   	push   %ebp
801023a7:	89 e5                	mov    %esp,%ebp
801023a9:	8b 15 a8 06 11 80    	mov    0x801106a8,%edx
801023af:	8b 45 08             	mov    0x8(%ebp),%eax
801023b2:	83 e0 fc             	and    $0xfffffffc,%eax
801023b5:	01 d0                	add    %edx,%eax
801023b7:	8b 00                	mov    (%eax),%eax
801023b9:	5d                   	pop    %ebp
801023ba:	c3                   	ret    

801023bb <ioapic_write>:
801023bb:	55                   	push   %ebp
801023bc:	89 e5                	mov    %esp,%ebp
801023be:	a1 ac 06 11 80       	mov    0x801106ac,%eax
801023c3:	8b 55 08             	mov    0x8(%ebp),%edx
801023c6:	89 10                	mov    %edx,(%eax)
801023c8:	a1 ac 06 11 80       	mov    0x801106ac,%eax
801023cd:	8b 55 0c             	mov    0xc(%ebp),%edx
801023d0:	89 50 10             	mov    %edx,0x10(%eax)
801023d3:	90                   	nop
801023d4:	5d                   	pop    %ebp
801023d5:	c3                   	ret    

801023d6 <ioapic_enable>:
801023d6:	55                   	push   %ebp
801023d7:	89 e5                	mov    %esp,%ebp
801023d9:	8b 45 0c             	mov    0xc(%ebp),%eax
801023dc:	8b 55 08             	mov    0x8(%ebp),%edx
801023df:	83 c2 08             	add    $0x8,%edx
801023e2:	01 d2                	add    %edx,%edx
801023e4:	50                   	push   %eax
801023e5:	52                   	push   %edx
801023e6:	e8 d0 ff ff ff       	call   801023bb <ioapic_write>
801023eb:	83 c4 08             	add    $0x8,%esp
801023ee:	8b 45 08             	mov    0x8(%ebp),%eax
801023f1:	83 c0 08             	add    $0x8,%eax
801023f4:	01 c0                	add    %eax,%eax
801023f6:	83 c0 01             	add    $0x1,%eax
801023f9:	6a 00                	push   $0x0
801023fb:	50                   	push   %eax
801023fc:	e8 ba ff ff ff       	call   801023bb <ioapic_write>
80102401:	83 c4 08             	add    $0x8,%esp
80102404:	90                   	nop
80102405:	c9                   	leave  
80102406:	c3                   	ret    

80102407 <calibrate_timer>:
80102407:	55                   	push   %ebp
80102408:	89 e5                	mov    %esp,%ebp
8010240a:	83 ec 18             	sub    $0x18,%esp
8010240d:	6a 61                	push   $0x61
8010240f:	e8 55 ff ff ff       	call   80102369 <inb>
80102414:	83 c4 04             	add    $0x4,%esp
80102417:	83 e0 fc             	and    $0xfffffffc,%eax
8010241a:	83 c8 01             	or     $0x1,%eax
8010241d:	88 45 f7             	mov    %al,-0x9(%ebp)
80102420:	0f b6 45 f7          	movzbl -0x9(%ebp),%eax
80102424:	50                   	push   %eax
80102425:	6a 61                	push   $0x61
80102427:	e8 1c ff ff ff       	call   80102348 <outb>
8010242c:	83 c4 08             	add    $0x8,%esp
8010242f:	68 b2 00 00 00       	push   $0xb2
80102434:	6a 43                	push   $0x43
80102436:	e8 0d ff ff ff       	call   80102348 <outb>
8010243b:	83 c4 08             	add    $0x8,%esp
8010243e:	68 9b 00 00 00       	push   $0x9b
80102443:	6a 42                	push   $0x42
80102445:	e8 fe fe ff ff       	call   80102348 <outb>
8010244a:	83 c4 08             	add    $0x8,%esp
8010244d:	6a 60                	push   $0x60
8010244f:	e8 15 ff ff ff       	call   80102369 <inb>
80102454:	83 c4 04             	add    $0x4,%esp
80102457:	6a 2e                	push   $0x2e
80102459:	6a 42                	push   $0x42
8010245b:	e8 e8 fe ff ff       	call   80102348 <outb>
80102460:	83 c4 08             	add    $0x8,%esp
80102463:	6a 61                	push   $0x61
80102465:	e8 ff fe ff ff       	call   80102369 <inb>
8010246a:	83 c4 04             	add    $0x4,%esp
8010246d:	83 e0 fe             	and    $0xfffffffe,%eax
80102470:	88 45 f7             	mov    %al,-0x9(%ebp)
80102473:	0f b6 45 f7          	movzbl -0x9(%ebp),%eax
80102477:	50                   	push   %eax
80102478:	6a 61                	push   $0x61
8010247a:	e8 c9 fe ff ff       	call   80102348 <outb>
8010247f:	83 c4 08             	add    $0x8,%esp
80102482:	0f b6 45 f7          	movzbl -0x9(%ebp),%eax
80102486:	83 c8 01             	or     $0x1,%eax
80102489:	0f b6 c0             	movzbl %al,%eax
8010248c:	50                   	push   %eax
8010248d:	6a 61                	push   $0x61
8010248f:	e8 b4 fe ff ff       	call   80102348 <outb>
80102494:	83 c4 08             	add    $0x8,%esp
80102497:	6a ff                	push   $0xffffffff
80102499:	68 80 03 00 00       	push   $0x380
8010249e:	e8 e3 fe ff ff       	call   80102386 <lapic_write>
801024a3:	83 c4 08             	add    $0x8,%esp
801024a6:	90                   	nop
801024a7:	6a 61                	push   $0x61
801024a9:	e8 bb fe ff ff       	call   80102369 <inb>
801024ae:	83 c4 04             	add    $0x4,%esp
801024b1:	0f b6 c0             	movzbl %al,%eax
801024b4:	83 e0 20             	and    $0x20,%eax
801024b7:	85 c0                	test   %eax,%eax
801024b9:	75 ec                	jne    801024a7 <calibrate_timer+0xa0>
801024bb:	68 00 00 01 00       	push   $0x10000
801024c0:	68 20 03 00 00       	push   $0x320
801024c5:	e8 bc fe ff ff       	call   80102386 <lapic_write>
801024ca:	83 c4 08             	add    $0x8,%esp
801024cd:	68 90 03 00 00       	push   $0x390
801024d2:	e8 cf fe ff ff       	call   801023a6 <lapic_read>
801024d7:	83 c4 04             	add    $0x4,%esp
801024da:	f7 d0                	not    %eax
801024dc:	89 45 f0             	mov    %eax,-0x10(%ebp)
801024df:	83 ec 08             	sub    $0x8,%esp
801024e2:	ff 75 f0             	pushl  -0x10(%ebp)
801024e5:	68 a8 53 10 80       	push   $0x801053a8
801024ea:	e8 42 fd ff ff       	call   80102231 <printf_>
801024ef:	83 c4 10             	add    $0x10,%esp
801024f2:	8b 45 f0             	mov    -0x10(%ebp),%eax
801024f5:	ba cd cc cc cc       	mov    $0xcccccccd,%edx
801024fa:	f7 e2                	mul    %edx
801024fc:	89 d0                	mov    %edx,%eax
801024fe:	c1 e8 03             	shr    $0x3,%eax
80102501:	83 ec 08             	sub    $0x8,%esp
80102504:	50                   	push   %eax
80102505:	68 80 03 00 00       	push   $0x380
8010250a:	e8 77 fe ff ff       	call   80102386 <lapic_write>
8010250f:	83 c4 10             	add    $0x10,%esp
80102512:	83 ec 08             	sub    $0x8,%esp
80102515:	6a 03                	push   $0x3
80102517:	68 e0 03 00 00       	push   $0x3e0
8010251c:	e8 65 fe ff ff       	call   80102386 <lapic_write>
80102521:	83 c4 10             	add    $0x10,%esp
80102524:	83 ec 08             	sub    $0x8,%esp
80102527:	68 20 00 02 00       	push   $0x20020
8010252c:	68 20 03 00 00       	push   $0x320
80102531:	e8 50 fe ff ff       	call   80102386 <lapic_write>
80102536:	83 c4 10             	add    $0x10,%esp
80102539:	90                   	nop
8010253a:	c9                   	leave  
8010253b:	c3                   	ret    

8010253c <apic_init>:
8010253c:	55                   	push   %ebp
8010253d:	89 e5                	mov    %esp,%ebp
8010253f:	83 ec 18             	sub    $0x18,%esp
80102542:	83 ec 08             	sub    $0x8,%esp
80102545:	68 bb 53 10 80       	push   $0x801053bb
8010254a:	ff 75 08             	pushl  0x8(%ebp)
8010254d:	e8 5e 05 00 00       	call   80102ab0 <acpi_find_sdt>
80102552:	83 c4 10             	add    $0x10,%esp
80102555:	89 45 f0             	mov    %eax,-0x10(%ebp)
80102558:	83 7d f0 00          	cmpl   $0x0,-0x10(%ebp)
8010255c:	75 10                	jne    8010256e <apic_init+0x32>
8010255e:	83 ec 0c             	sub    $0xc,%esp
80102561:	68 c0 53 10 80       	push   $0x801053c0
80102566:	e8 36 02 00 00       	call   801027a1 <panic>
8010256b:	83 c4 10             	add    $0x10,%esp
8010256e:	8b 45 f0             	mov    -0x10(%ebp),%eax
80102571:	8b 40 24             	mov    0x24(%eax),%eax
80102574:	a3 a8 06 11 80       	mov    %eax,0x801106a8
80102579:	8b 45 f0             	mov    -0x10(%ebp),%eax
8010257c:	83 c0 2c             	add    $0x2c,%eax
8010257f:	89 45 f4             	mov    %eax,-0xc(%ebp)
80102582:	8b 45 f0             	mov    -0x10(%ebp),%eax
80102585:	8b 50 04             	mov    0x4(%eax),%edx
80102588:	8b 45 f0             	mov    -0x10(%ebp),%eax
8010258b:	01 d0                	add    %edx,%eax
8010258d:	39 45 f4             	cmp    %eax,-0xc(%ebp)
80102590:	73 53                	jae    801025e5 <apic_init+0xa9>
80102592:	8b 45 f4             	mov    -0xc(%ebp),%eax
80102595:	0f b6 00             	movzbl (%eax),%eax
80102598:	0f b6 c0             	movzbl %al,%eax
8010259b:	85 c0                	test   %eax,%eax
8010259d:	74 07                	je     801025a6 <apic_init+0x6a>
8010259f:	83 f8 01             	cmp    $0x1,%eax
801025a2:	74 14                	je     801025b8 <apic_init+0x7c>
801025a4:	eb 30                	jmp    801025d6 <apic_init+0x9a>
801025a6:	83 ec 0c             	sub    $0xc,%esp
801025a9:	68 d0 53 10 80       	push   $0x801053d0
801025ae:	e8 7e fc ff ff       	call   80102231 <printf_>
801025b3:	83 c4 10             	add    $0x10,%esp
801025b6:	eb 1e                	jmp    801025d6 <apic_init+0x9a>
801025b8:	8b 45 f4             	mov    -0xc(%ebp),%eax
801025bb:	83 c0 04             	add    $0x4,%eax
801025be:	8b 00                	mov    (%eax),%eax
801025c0:	a3 ac 06 11 80       	mov    %eax,0x801106ac
801025c5:	83 ec 0c             	sub    $0xc,%esp
801025c8:	68 dd 53 10 80       	push   $0x801053dd
801025cd:	e8 5f fc ff ff       	call   80102231 <printf_>
801025d2:	83 c4 10             	add    $0x10,%esp
801025d5:	90                   	nop
801025d6:	8b 45 f4             	mov    -0xc(%ebp),%eax
801025d9:	0f b6 40 01          	movzbl 0x1(%eax),%eax
801025dd:	0f b6 c0             	movzbl %al,%eax
801025e0:	01 45 f4             	add    %eax,-0xc(%ebp)
801025e3:	eb 9d                	jmp    80102582 <apic_init+0x46>
801025e5:	90                   	nop
801025e6:	a1 ac 06 11 80       	mov    0x801106ac,%eax
801025eb:	85 c0                	test   %eax,%eax
801025ed:	75 10                	jne    801025ff <apic_init+0xc3>
801025ef:	83 ec 0c             	sub    $0xc,%esp
801025f2:	68 f0 53 10 80       	push   $0x801053f0
801025f7:	e8 a5 01 00 00       	call   801027a1 <panic>
801025fc:	83 c4 10             	add    $0x10,%esp
801025ff:	a1 a8 06 11 80       	mov    0x801106a8,%eax
80102604:	85 c0                	test   %eax,%eax
80102606:	75 10                	jne    80102618 <apic_init+0xdc>
80102608:	83 ec 0c             	sub    $0xc,%esp
8010260b:	68 10 54 10 80       	push   $0x80105410
80102610:	e8 8c 01 00 00       	call   801027a1 <panic>
80102615:	83 c4 10             	add    $0x10,%esp
80102618:	a1 a8 06 11 80       	mov    0x801106a8,%eax
8010261d:	83 ec 08             	sub    $0x8,%esp
80102620:	68 00 20 00 00       	push   $0x2000
80102625:	50                   	push   %eax
80102626:	e8 59 17 00 00       	call   80103d84 <identity_map>
8010262b:	83 c4 10             	add    $0x10,%esp
8010262e:	a1 ac 06 11 80       	mov    0x801106ac,%eax
80102633:	83 ec 08             	sub    $0x8,%esp
80102636:	68 00 20 00 00       	push   $0x2000
8010263b:	50                   	push   %eax
8010263c:	e8 43 17 00 00       	call   80103d84 <identity_map>
80102641:	83 c4 10             	add    $0x10,%esp
80102644:	83 ec 08             	sub    $0x8,%esp
80102647:	68 ff 00 00 00       	push   $0xff
8010264c:	6a 21                	push   $0x21
8010264e:	e8 f5 fc ff ff       	call   80102348 <outb>
80102653:	83 c4 10             	add    $0x10,%esp
80102656:	83 ec 08             	sub    $0x8,%esp
80102659:	68 ff 00 00 00       	push   $0xff
8010265e:	68 a1 00 00 00       	push   $0xa1
80102663:	e8 e0 fc ff ff       	call   80102348 <outb>
80102668:	83 c4 10             	add    $0x10,%esp
8010266b:	83 ec 08             	sub    $0x8,%esp
8010266e:	6a ff                	push   $0xffffffff
80102670:	68 e0 00 00 00       	push   $0xe0
80102675:	e8 0c fd ff ff       	call   80102386 <lapic_write>
8010267a:	83 c4 10             	add    $0x10,%esp
8010267d:	83 ec 0c             	sub    $0xc,%esp
80102680:	68 d0 00 00 00       	push   $0xd0
80102685:	e8 1c fd ff ff       	call   801023a6 <lapic_read>
8010268a:	83 c4 10             	add    $0x10,%esp
8010268d:	25 fe ff ff 00       	and    $0xfffffe,%eax
80102692:	83 c8 01             	or     $0x1,%eax
80102695:	83 ec 08             	sub    $0x8,%esp
80102698:	50                   	push   %eax
80102699:	68 d0 00 00 00       	push   $0xd0
8010269e:	e8 e3 fc ff ff       	call   80102386 <lapic_write>
801026a3:	83 c4 10             	add    $0x10,%esp
801026a6:	83 ec 08             	sub    $0x8,%esp
801026a9:	68 00 00 01 00       	push   $0x10000
801026ae:	68 20 03 00 00       	push   $0x320
801026b3:	e8 ce fc ff ff       	call   80102386 <lapic_write>
801026b8:	83 c4 10             	add    $0x10,%esp
801026bb:	83 ec 08             	sub    $0x8,%esp
801026be:	68 00 04 00 00       	push   $0x400
801026c3:	68 40 03 00 00       	push   $0x340
801026c8:	e8 b9 fc ff ff       	call   80102386 <lapic_write>
801026cd:	83 c4 10             	add    $0x10,%esp
801026d0:	83 ec 08             	sub    $0x8,%esp
801026d3:	68 00 00 01 00       	push   $0x10000
801026d8:	68 50 03 00 00       	push   $0x350
801026dd:	e8 a4 fc ff ff       	call   80102386 <lapic_write>
801026e2:	83 c4 10             	add    $0x10,%esp
801026e5:	83 ec 08             	sub    $0x8,%esp
801026e8:	68 00 00 01 00       	push   $0x10000
801026ed:	68 60 03 00 00       	push   $0x360
801026f2:	e8 8f fc ff ff       	call   80102386 <lapic_write>
801026f7:	83 c4 10             	add    $0x10,%esp
801026fa:	83 ec 08             	sub    $0x8,%esp
801026fd:	6a 00                	push   $0x0
801026ff:	68 80 00 00 00       	push   $0x80
80102704:	e8 7d fc ff ff       	call   80102386 <lapic_write>
80102709:	83 c4 10             	add    $0x10,%esp
8010270c:	83 ec 08             	sub    $0x8,%esp
8010270f:	6a 00                	push   $0x0
80102711:	68 b0 00 00 00       	push   $0xb0
80102716:	e8 6b fc ff ff       	call   80102386 <lapic_write>
8010271b:	83 c4 10             	add    $0x10,%esp
8010271e:	83 ec 08             	sub    $0x8,%esp
80102721:	6a 20                	push   $0x20
80102723:	68 20 03 00 00       	push   $0x320
80102728:	e8 59 fc ff ff       	call   80102386 <lapic_write>
8010272d:	83 c4 10             	add    $0x10,%esp
80102730:	83 ec 08             	sub    $0x8,%esp
80102733:	68 27 01 00 00       	push   $0x127
80102738:	68 f0 00 00 00       	push   $0xf0
8010273d:	e8 44 fc ff ff       	call   80102386 <lapic_write>
80102742:	83 c4 10             	add    $0x10,%esp
80102745:	83 ec 08             	sub    $0x8,%esp
80102748:	6a 03                	push   $0x3
8010274a:	68 e0 03 00 00       	push   $0x3e0
8010274f:	e8 32 fc ff ff       	call   80102386 <lapic_write>
80102754:	83 c4 10             	add    $0x10,%esp
80102757:	e8 ab fc ff ff       	call   80102407 <calibrate_timer>
8010275c:	83 ec 08             	sub    $0x8,%esp
8010275f:	6a 28                	push   $0x28
80102761:	6a 01                	push   $0x1
80102763:	e8 6e fc ff ff       	call   801023d6 <ioapic_enable>
80102768:	83 c4 10             	add    $0x10,%esp
8010276b:	83 ec 0c             	sub    $0xc,%esp
8010276e:	68 31 54 10 80       	push   $0x80105431
80102773:	e8 b9 fa ff ff       	call   80102231 <printf_>
80102778:	83 c4 10             	add    $0x10,%esp
8010277b:	90                   	nop
8010277c:	c9                   	leave  
8010277d:	c3                   	ret    

8010277e <apic_eoi>:
8010277e:	55                   	push   %ebp
8010277f:	89 e5                	mov    %esp,%ebp
80102781:	6a 00                	push   $0x0
80102783:	68 b0 00 00 00       	push   $0xb0
80102788:	e8 f9 fb ff ff       	call   80102386 <lapic_write>
8010278d:	83 c4 08             	add    $0x8,%esp
80102790:	90                   	nop
80102791:	c9                   	leave  
80102792:	c3                   	ret    

80102793 <cli>:
80102793:	55                   	push   %ebp
80102794:	89 e5                	mov    %esp,%ebp
80102796:	fa                   	cli    
80102797:	90                   	nop
80102798:	5d                   	pop    %ebp
80102799:	c3                   	ret    

8010279a <hlt>:
8010279a:	55                   	push   %ebp
8010279b:	89 e5                	mov    %esp,%ebp
8010279d:	f4                   	hlt    
8010279e:	90                   	nop
8010279f:	5d                   	pop    %ebp
801027a0:	c3                   	ret    

801027a1 <panic>:
801027a1:	55                   	push   %ebp
801027a2:	89 e5                	mov    %esp,%ebp
801027a4:	83 ec 08             	sub    $0x8,%esp
801027a7:	e8 e7 ff ff ff       	call   80102793 <cli>
801027ac:	83 ec 0c             	sub    $0xc,%esp
801027af:	68 46 54 10 80       	push   $0x80105446
801027b4:	e8 78 fa ff ff       	call   80102231 <printf_>
801027b9:	83 c4 10             	add    $0x10,%esp
801027bc:	8b 45 04             	mov    0x4(%ebp),%eax
801027bf:	83 ec 08             	sub    $0x8,%esp
801027c2:	50                   	push   %eax
801027c3:	68 63 54 10 80       	push   $0x80105463
801027c8:	e8 64 fa ff ff       	call   80102231 <printf_>
801027cd:	83 c4 10             	add    $0x10,%esp
801027d0:	83 ec 08             	sub    $0x8,%esp
801027d3:	ff 75 08             	pushl  0x8(%ebp)
801027d6:	68 7d 54 10 80       	push   $0x8010547d
801027db:	e8 51 fa ff ff       	call   80102231 <printf_>
801027e0:	83 c4 10             	add    $0x10,%esp
801027e3:	e8 b2 ff ff ff       	call   8010279a <hlt>
801027e8:	eb f9                	jmp    801027e3 <panic+0x42>

801027ea <find_rsdp_in_region>:
801027ea:	55                   	push   %ebp
801027eb:	89 e5                	mov    %esp,%ebp
801027ed:	83 ec 18             	sub    $0x18,%esp
801027f0:	c7 45 f4 00 00 00 00 	movl   $0x0,-0xc(%ebp)
801027f7:	eb 2d                	jmp    80102826 <find_rsdp_in_region+0x3c>
801027f9:	8b 55 08             	mov    0x8(%ebp),%edx
801027fc:	8b 45 f4             	mov    -0xc(%ebp),%eax
801027ff:	01 d0                	add    %edx,%eax
80102801:	89 45 f0             	mov    %eax,-0x10(%ebp)
80102804:	83 ec 04             	sub    $0x4,%esp
80102807:	6a 08                	push   $0x8
80102809:	ff 75 f0             	pushl  -0x10(%ebp)
8010280c:	68 8c 54 10 80       	push   $0x8010548c
80102811:	e8 35 03 00 00       	call   80102b4b <memcmp>
80102816:	83 c4 10             	add    $0x10,%esp
80102819:	85 c0                	test   %eax,%eax
8010281b:	75 05                	jne    80102822 <find_rsdp_in_region+0x38>
8010281d:	8b 45 f0             	mov    -0x10(%ebp),%eax
80102820:	eb 14                	jmp    80102836 <find_rsdp_in_region+0x4c>
80102822:	83 45 f4 01          	addl   $0x1,-0xc(%ebp)
80102826:	8b 45 0c             	mov    0xc(%ebp),%eax
80102829:	83 e8 08             	sub    $0x8,%eax
8010282c:	39 45 f4             	cmp    %eax,-0xc(%ebp)
8010282f:	72 c8                	jb     801027f9 <find_rsdp_in_region+0xf>
80102831:	b8 00 00 00 00       	mov    $0x0,%eax
80102836:	c9                   	leave  
80102837:	c3                   	ret    

80102838 <calc_checksum>:
80102838:	55                   	push   %ebp
80102839:	89 e5                	mov    %esp,%ebp
8010283b:	83 ec 10             	sub    $0x10,%esp
8010283e:	c7 45 fc 00 00 00 00 	movl   $0x0,-0x4(%ebp)
80102845:	c7 45 f8 00 00 00 00 	movl   $0x0,-0x8(%ebp)
8010284c:	eb 15                	jmp    80102863 <calc_checksum+0x2b>
8010284e:	8b 55 08             	mov    0x8(%ebp),%edx
80102851:	8b 45 f8             	mov    -0x8(%ebp),%eax
80102854:	01 d0                	add    %edx,%eax
80102856:	0f b6 00             	movzbl (%eax),%eax
80102859:	0f b6 c0             	movzbl %al,%eax
8010285c:	01 45 fc             	add    %eax,-0x4(%ebp)
8010285f:	83 45 f8 01          	addl   $0x1,-0x8(%ebp)
80102863:	8b 45 f8             	mov    -0x8(%ebp),%eax
80102866:	3b 45 0c             	cmp    0xc(%ebp),%eax
80102869:	72 e3                	jb     8010284e <calc_checksum+0x16>
8010286b:	8b 45 fc             	mov    -0x4(%ebp),%eax
8010286e:	c9                   	leave  
8010286f:	c3                   	ret    

80102870 <acpi_verify_rsdp>:
80102870:	55                   	push   %ebp
80102871:	89 e5                	mov    %esp,%ebp
80102873:	83 ec 18             	sub    $0x18,%esp
80102876:	8b 45 08             	mov    0x8(%ebp),%eax
80102879:	89 45 ec             	mov    %eax,-0x14(%ebp)
8010287c:	c7 45 f4 00 00 00 00 	movl   $0x0,-0xc(%ebp)
80102883:	c7 45 f0 00 00 00 00 	movl   $0x0,-0x10(%ebp)
8010288a:	eb 15                	jmp    801028a1 <acpi_verify_rsdp+0x31>
8010288c:	8b 55 f0             	mov    -0x10(%ebp),%edx
8010288f:	8b 45 ec             	mov    -0x14(%ebp),%eax
80102892:	01 d0                	add    %edx,%eax
80102894:	0f b6 00             	movzbl (%eax),%eax
80102897:	0f b6 c0             	movzbl %al,%eax
8010289a:	01 45 f4             	add    %eax,-0xc(%ebp)
8010289d:	83 45 f0 01          	addl   $0x1,-0x10(%ebp)
801028a1:	83 7d f0 13          	cmpl   $0x13,-0x10(%ebp)
801028a5:	7e e5                	jle    8010288c <acpi_verify_rsdp+0x1c>
801028a7:	83 ec 08             	sub    $0x8,%esp
801028aa:	ff 75 f4             	pushl  -0xc(%ebp)
801028ad:	68 95 54 10 80       	push   $0x80105495
801028b2:	e8 7a f9 ff ff       	call   80102231 <printf_>
801028b7:	83 c4 10             	add    $0x10,%esp
801028ba:	8b 45 f4             	mov    -0xc(%ebp),%eax
801028bd:	0f b6 c0             	movzbl %al,%eax
801028c0:	85 c0                	test   %eax,%eax
801028c2:	74 12                	je     801028d6 <acpi_verify_rsdp+0x66>
801028c4:	83 ec 0c             	sub    $0xc,%esp
801028c7:	68 a9 54 10 80       	push   $0x801054a9
801028cc:	e8 d0 fe ff ff       	call   801027a1 <panic>
801028d1:	83 c4 10             	add    $0x10,%esp
801028d4:	eb 10                	jmp    801028e6 <acpi_verify_rsdp+0x76>
801028d6:	83 ec 0c             	sub    $0xc,%esp
801028d9:	68 bf 54 10 80       	push   $0x801054bf
801028de:	e8 4e f9 ff ff       	call   80102231 <printf_>
801028e3:	83 c4 10             	add    $0x10,%esp
801028e6:	90                   	nop
801028e7:	c9                   	leave  
801028e8:	c3                   	ret    

801028e9 <acpi_verify_sdt>:
801028e9:	55                   	push   %ebp
801028ea:	89 e5                	mov    %esp,%ebp
801028ec:	83 ec 28             	sub    $0x28,%esp
801028ef:	8b 45 08             	mov    0x8(%ebp),%eax
801028f2:	89 45 f0             	mov    %eax,-0x10(%ebp)
801028f5:	8b 45 f0             	mov    -0x10(%ebp),%eax
801028f8:	8b 40 04             	mov    0x4(%eax),%eax
801028fb:	89 45 ec             	mov    %eax,-0x14(%ebp)
801028fe:	ff 75 ec             	pushl  -0x14(%ebp)
80102901:	ff 75 f0             	pushl  -0x10(%ebp)
80102904:	e8 2f ff ff ff       	call   80102838 <calc_checksum>
80102909:	83 c4 08             	add    $0x8,%esp
8010290c:	89 45 e8             	mov    %eax,-0x18(%ebp)
8010290f:	8b 45 f0             	mov    -0x10(%ebp),%eax
80102912:	83 ec 04             	sub    $0x4,%esp
80102915:	6a 04                	push   $0x4
80102917:	50                   	push   %eax
80102918:	8d 45 db             	lea    -0x25(%ebp),%eax
8010291b:	50                   	push   %eax
8010291c:	e8 85 02 00 00       	call   80102ba6 <memcpy>
80102921:	83 c4 10             	add    $0x10,%esp
80102924:	c6 45 df 00          	movb   $0x0,-0x21(%ebp)
80102928:	83 ec 04             	sub    $0x4,%esp
8010292b:	ff 75 e8             	pushl  -0x18(%ebp)
8010292e:	8d 45 db             	lea    -0x25(%ebp),%eax
80102931:	50                   	push   %eax
80102932:	68 c5 54 10 80       	push   $0x801054c5
80102937:	e8 f5 f8 ff ff       	call   80102231 <printf_>
8010293c:	83 c4 10             	add    $0x10,%esp
8010293f:	8b 45 e8             	mov    -0x18(%ebp),%eax
80102942:	0f b6 c0             	movzbl %al,%eax
80102945:	85 c0                	test   %eax,%eax
80102947:	74 12                	je     8010295b <acpi_verify_sdt+0x72>
80102949:	83 ec 0c             	sub    $0xc,%esp
8010294c:	68 d7 54 10 80       	push   $0x801054d7
80102951:	e8 4b fe ff ff       	call   801027a1 <panic>
80102956:	83 c4 10             	add    $0x10,%esp
80102959:	eb 10                	jmp    8010296b <acpi_verify_sdt+0x82>
8010295b:	83 ec 0c             	sub    $0xc,%esp
8010295e:	68 bf 54 10 80       	push   $0x801054bf
80102963:	e8 c9 f8 ff ff       	call   80102231 <printf_>
80102968:	83 c4 10             	add    $0x10,%esp
8010296b:	8b 45 f0             	mov    -0x10(%ebp),%eax
8010296e:	83 ec 04             	sub    $0x4,%esp
80102971:	6a 04                	push   $0x4
80102973:	68 ec 54 10 80       	push   $0x801054ec
80102978:	50                   	push   %eax
80102979:	e8 cd 01 00 00       	call   80102b4b <memcmp>
8010297e:	83 c4 10             	add    $0x10,%esp
80102981:	85 c0                	test   %eax,%eax
80102983:	75 55                	jne    801029da <acpi_verify_sdt+0xf1>
80102985:	8b 45 08             	mov    0x8(%ebp),%eax
80102988:	8b 40 04             	mov    0x4(%eax),%eax
8010298b:	83 e8 24             	sub    $0x24,%eax
8010298e:	c1 e8 02             	shr    $0x2,%eax
80102991:	89 45 e4             	mov    %eax,-0x1c(%ebp)
80102994:	c7 45 f4 00 00 00 00 	movl   $0x0,-0xc(%ebp)
8010299b:	eb 35                	jmp    801029d2 <acpi_verify_sdt+0xe9>
8010299d:	8b 45 08             	mov    0x8(%ebp),%eax
801029a0:	8b 55 f4             	mov    -0xc(%ebp),%edx
801029a3:	83 c2 08             	add    $0x8,%edx
801029a6:	8b 44 90 04          	mov    0x4(%eax,%edx,4),%eax
801029aa:	89 45 e0             	mov    %eax,-0x20(%ebp)
801029ad:	83 ec 08             	sub    $0x8,%esp
801029b0:	68 00 20 00 00       	push   $0x2000
801029b5:	ff 75 e0             	pushl  -0x20(%ebp)
801029b8:	e8 c7 13 00 00       	call   80103d84 <identity_map>
801029bd:	83 c4 10             	add    $0x10,%esp
801029c0:	83 ec 0c             	sub    $0xc,%esp
801029c3:	ff 75 e0             	pushl  -0x20(%ebp)
801029c6:	e8 1e ff ff ff       	call   801028e9 <acpi_verify_sdt>
801029cb:	83 c4 10             	add    $0x10,%esp
801029ce:	83 45 f4 01          	addl   $0x1,-0xc(%ebp)
801029d2:	8b 45 f4             	mov    -0xc(%ebp),%eax
801029d5:	3b 45 e4             	cmp    -0x1c(%ebp),%eax
801029d8:	72 c3                	jb     8010299d <acpi_verify_sdt+0xb4>
801029da:	90                   	nop
801029db:	c9                   	leave  
801029dc:	c3                   	ret    

801029dd <acpi_find_rsdt>:
801029dd:	55                   	push   %ebp
801029de:	89 e5                	mov    %esp,%ebp
801029e0:	83 ec 18             	sub    $0x18,%esp
801029e3:	83 ec 0c             	sub    $0xc,%esp
801029e6:	68 0e 04 00 00       	push   $0x40e
801029eb:	e8 2a 0d 00 00       	call   8010371a <phys2virt>
801029f0:	83 c4 10             	add    $0x10,%esp
801029f3:	0f b7 00             	movzwl (%eax),%eax
801029f6:	0f b7 c0             	movzwl %ax,%eax
801029f9:	c1 e0 04             	shl    $0x4,%eax
801029fc:	83 ec 0c             	sub    $0xc,%esp
801029ff:	50                   	push   %eax
80102a00:	e8 15 0d 00 00       	call   8010371a <phys2virt>
80102a05:	83 c4 10             	add    $0x10,%esp
80102a08:	89 45 f0             	mov    %eax,-0x10(%ebp)
80102a0b:	83 ec 08             	sub    $0x8,%esp
80102a0e:	68 00 04 00 00       	push   $0x400
80102a13:	ff 75 f0             	pushl  -0x10(%ebp)
80102a16:	e8 cf fd ff ff       	call   801027ea <find_rsdp_in_region>
80102a1b:	83 c4 10             	add    $0x10,%esp
80102a1e:	89 45 f4             	mov    %eax,-0xc(%ebp)
80102a21:	83 7d f4 00          	cmpl   $0x0,-0xc(%ebp)
80102a25:	75 24                	jne    80102a4b <acpi_find_rsdt+0x6e>
80102a27:	83 ec 0c             	sub    $0xc,%esp
80102a2a:	68 00 00 0e 00       	push   $0xe0000
80102a2f:	e8 e6 0c 00 00       	call   8010371a <phys2virt>
80102a34:	83 c4 10             	add    $0x10,%esp
80102a37:	83 ec 08             	sub    $0x8,%esp
80102a3a:	68 ff ff 01 00       	push   $0x1ffff
80102a3f:	50                   	push   %eax
80102a40:	e8 a5 fd ff ff       	call   801027ea <find_rsdp_in_region>
80102a45:	83 c4 10             	add    $0x10,%esp
80102a48:	89 45 f4             	mov    %eax,-0xc(%ebp)
80102a4b:	83 7d f4 00          	cmpl   $0x0,-0xc(%ebp)
80102a4f:	75 07                	jne    80102a58 <acpi_find_rsdt+0x7b>
80102a51:	b8 00 00 00 00       	mov    $0x0,%eax
80102a56:	eb 56                	jmp    80102aae <acpi_find_rsdt+0xd1>
80102a58:	8b 45 f4             	mov    -0xc(%ebp),%eax
80102a5b:	0f b6 40 0f          	movzbl 0xf(%eax),%eax
80102a5f:	84 c0                	test   %al,%al
80102a61:	74 10                	je     80102a73 <acpi_find_rsdt+0x96>
80102a63:	83 ec 0c             	sub    $0xc,%esp
80102a66:	68 f4 54 10 80       	push   $0x801054f4
80102a6b:	e8 31 fd ff ff       	call   801027a1 <panic>
80102a70:	83 c4 10             	add    $0x10,%esp
80102a73:	83 ec 0c             	sub    $0xc,%esp
80102a76:	ff 75 f4             	pushl  -0xc(%ebp)
80102a79:	e8 f2 fd ff ff       	call   80102870 <acpi_verify_rsdp>
80102a7e:	83 c4 10             	add    $0x10,%esp
80102a81:	8b 45 f4             	mov    -0xc(%ebp),%eax
80102a84:	8b 40 10             	mov    0x10(%eax),%eax
80102a87:	89 45 ec             	mov    %eax,-0x14(%ebp)
80102a8a:	83 ec 08             	sub    $0x8,%esp
80102a8d:	68 00 10 00 00       	push   $0x1000
80102a92:	ff 75 ec             	pushl  -0x14(%ebp)
80102a95:	e8 ea 12 00 00       	call   80103d84 <identity_map>
80102a9a:	83 c4 10             	add    $0x10,%esp
80102a9d:	83 ec 0c             	sub    $0xc,%esp
80102aa0:	ff 75 ec             	pushl  -0x14(%ebp)
80102aa3:	e8 41 fe ff ff       	call   801028e9 <acpi_verify_sdt>
80102aa8:	83 c4 10             	add    $0x10,%esp
80102aab:	8b 45 ec             	mov    -0x14(%ebp),%eax
80102aae:	c9                   	leave  
80102aaf:	c3                   	ret    

80102ab0 <acpi_find_sdt>:
80102ab0:	55                   	push   %ebp
80102ab1:	89 e5                	mov    %esp,%ebp
80102ab3:	83 ec 18             	sub    $0x18,%esp
80102ab6:	8b 45 08             	mov    0x8(%ebp),%eax
80102ab9:	8b 40 04             	mov    0x4(%eax),%eax
80102abc:	83 e8 24             	sub    $0x24,%eax
80102abf:	c1 e8 02             	shr    $0x2,%eax
80102ac2:	89 45 f0             	mov    %eax,-0x10(%ebp)
80102ac5:	c7 45 f4 00 00 00 00 	movl   $0x0,-0xc(%ebp)
80102acc:	eb 35                	jmp    80102b03 <acpi_find_sdt+0x53>
80102ace:	8b 45 08             	mov    0x8(%ebp),%eax
80102ad1:	8b 55 f4             	mov    -0xc(%ebp),%edx
80102ad4:	83 c2 08             	add    $0x8,%edx
80102ad7:	8b 44 90 04          	mov    0x4(%eax,%edx,4),%eax
80102adb:	83 ec 04             	sub    $0x4,%esp
80102ade:	6a 04                	push   $0x4
80102ae0:	50                   	push   %eax
80102ae1:	ff 75 0c             	pushl  0xc(%ebp)
80102ae4:	e8 62 00 00 00       	call   80102b4b <memcmp>
80102ae9:	83 c4 10             	add    $0x10,%esp
80102aec:	85 c0                	test   %eax,%eax
80102aee:	75 0f                	jne    80102aff <acpi_find_sdt+0x4f>
80102af0:	8b 45 08             	mov    0x8(%ebp),%eax
80102af3:	8b 55 f4             	mov    -0xc(%ebp),%edx
80102af6:	83 c2 08             	add    $0x8,%edx
80102af9:	8b 44 90 04          	mov    0x4(%eax,%edx,4),%eax
80102afd:	eb 11                	jmp    80102b10 <acpi_find_sdt+0x60>
80102aff:	83 45 f4 01          	addl   $0x1,-0xc(%ebp)
80102b03:	8b 45 f4             	mov    -0xc(%ebp),%eax
80102b06:	3b 45 f0             	cmp    -0x10(%ebp),%eax
80102b09:	72 c3                	jb     80102ace <acpi_find_sdt+0x1e>
80102b0b:	b8 00 00 00 00       	mov    $0x0,%eax
80102b10:	c9                   	leave  
80102b11:	c3                   	ret    

80102b12 <memchr>:
80102b12:	55                   	push   %ebp
80102b13:	89 e5                	mov    %esp,%ebp
80102b15:	83 ec 10             	sub    $0x10,%esp
80102b18:	8b 45 0c             	mov    0xc(%ebp),%eax
80102b1b:	88 45 fb             	mov    %al,-0x5(%ebp)
80102b1e:	8b 45 08             	mov    0x8(%ebp),%eax
80102b21:	89 45 fc             	mov    %eax,-0x4(%ebp)
80102b24:	eb 18                	jmp    80102b3e <memchr+0x2c>
80102b26:	8b 45 fc             	mov    -0x4(%ebp),%eax
80102b29:	0f b6 00             	movzbl (%eax),%eax
80102b2c:	38 45 fb             	cmp    %al,-0x5(%ebp)
80102b2f:	75 05                	jne    80102b36 <memchr+0x24>
80102b31:	8b 45 fc             	mov    -0x4(%ebp),%eax
80102b34:	eb 13                	jmp    80102b49 <memchr+0x37>
80102b36:	83 45 fc 01          	addl   $0x1,-0x4(%ebp)
80102b3a:	83 6d 10 01          	subl   $0x1,0x10(%ebp)
80102b3e:	83 7d 10 00          	cmpl   $0x0,0x10(%ebp)
80102b42:	75 e2                	jne    80102b26 <memchr+0x14>
80102b44:	b8 00 00 00 00       	mov    $0x0,%eax
80102b49:	c9                   	leave  
80102b4a:	c3                   	ret    

80102b4b <memcmp>:
80102b4b:	55                   	push   %ebp
80102b4c:	89 e5                	mov    %esp,%ebp
80102b4e:	83 ec 10             	sub    $0x10,%esp
80102b51:	8b 45 08             	mov    0x8(%ebp),%eax
80102b54:	89 45 fc             	mov    %eax,-0x4(%ebp)
80102b57:	8b 45 0c             	mov    0xc(%ebp),%eax
80102b5a:	89 45 f8             	mov    %eax,-0x8(%ebp)
80102b5d:	eb 3a                	jmp    80102b99 <memcmp+0x4e>
80102b5f:	8b 45 fc             	mov    -0x4(%ebp),%eax
80102b62:	0f b6 10             	movzbl (%eax),%edx
80102b65:	8b 45 f8             	mov    -0x8(%ebp),%eax
80102b68:	0f b6 00             	movzbl (%eax),%eax
80102b6b:	38 c2                	cmp    %al,%dl
80102b6d:	74 1e                	je     80102b8d <memcmp+0x42>
80102b6f:	8b 45 fc             	mov    -0x4(%ebp),%eax
80102b72:	0f b6 10             	movzbl (%eax),%edx
80102b75:	8b 45 f8             	mov    -0x8(%ebp),%eax
80102b78:	0f b6 00             	movzbl (%eax),%eax
80102b7b:	38 c2                	cmp    %al,%dl
80102b7d:	73 07                	jae    80102b86 <memcmp+0x3b>
80102b7f:	b8 ff ff ff ff       	mov    $0xffffffff,%eax
80102b84:	eb 1e                	jmp    80102ba4 <memcmp+0x59>
80102b86:	b8 01 00 00 00       	mov    $0x1,%eax
80102b8b:	eb 17                	jmp    80102ba4 <memcmp+0x59>
80102b8d:	83 45 fc 01          	addl   $0x1,-0x4(%ebp)
80102b91:	83 45 f8 01          	addl   $0x1,-0x8(%ebp)
80102b95:	83 6d 10 01          	subl   $0x1,0x10(%ebp)
80102b99:	83 7d 10 00          	cmpl   $0x0,0x10(%ebp)
80102b9d:	75 c0                	jne    80102b5f <memcmp+0x14>
80102b9f:	b8 00 00 00 00       	mov    $0x0,%eax
80102ba4:	c9                   	leave  
80102ba5:	c3                   	ret    

80102ba6 <memcpy>:
80102ba6:	55                   	push   %ebp
80102ba7:	89 e5                	mov    %esp,%ebp
80102ba9:	83 ec 10             	sub    $0x10,%esp
80102bac:	8b 45 08             	mov    0x8(%ebp),%eax
80102baf:	89 45 fc             	mov    %eax,-0x4(%ebp)
80102bb2:	8b 45 0c             	mov    0xc(%ebp),%eax
80102bb5:	89 45 f8             	mov    %eax,-0x8(%ebp)
80102bb8:	eb 17                	jmp    80102bd1 <memcpy+0x2b>
80102bba:	8b 45 f8             	mov    -0x8(%ebp),%eax
80102bbd:	0f b6 10             	movzbl (%eax),%edx
80102bc0:	8b 45 fc             	mov    -0x4(%ebp),%eax
80102bc3:	88 10                	mov    %dl,(%eax)
80102bc5:	83 45 fc 01          	addl   $0x1,-0x4(%ebp)
80102bc9:	83 45 f8 01          	addl   $0x1,-0x8(%ebp)
80102bcd:	83 6d 10 01          	subl   $0x1,0x10(%ebp)
80102bd1:	83 7d 10 00          	cmpl   $0x0,0x10(%ebp)
80102bd5:	75 e3                	jne    80102bba <memcpy+0x14>
80102bd7:	8b 45 08             	mov    0x8(%ebp),%eax
80102bda:	c9                   	leave  
80102bdb:	c3                   	ret    

80102bdc <memmove>:
80102bdc:	55                   	push   %ebp
80102bdd:	89 e5                	mov    %esp,%ebp
80102bdf:	83 ec 10             	sub    $0x10,%esp
80102be2:	8b 45 08             	mov    0x8(%ebp),%eax
80102be5:	89 45 fc             	mov    %eax,-0x4(%ebp)
80102be8:	8b 45 0c             	mov    0xc(%ebp),%eax
80102beb:	89 45 f8             	mov    %eax,-0x8(%ebp)
80102bee:	8b 45 f8             	mov    -0x8(%ebp),%eax
80102bf1:	3b 45 fc             	cmp    -0x4(%ebp),%eax
80102bf4:	73 55                	jae    80102c4b <memmove+0x6f>
80102bf6:	8b 55 f8             	mov    -0x8(%ebp),%edx
80102bf9:	8b 45 10             	mov    0x10(%ebp),%eax
80102bfc:	01 d0                	add    %edx,%eax
80102bfe:	39 45 fc             	cmp    %eax,-0x4(%ebp)
80102c01:	73 48                	jae    80102c4b <memmove+0x6f>
80102c03:	8b 45 10             	mov    0x10(%ebp),%eax
80102c06:	01 45 fc             	add    %eax,-0x4(%ebp)
80102c09:	8b 45 10             	mov    0x10(%ebp),%eax
80102c0c:	01 45 f8             	add    %eax,-0x8(%ebp)
80102c0f:	eb 17                	jmp    80102c28 <memmove+0x4c>
80102c11:	83 6d f8 01          	subl   $0x1,-0x8(%ebp)
80102c15:	83 6d fc 01          	subl   $0x1,-0x4(%ebp)
80102c19:	8b 45 f8             	mov    -0x8(%ebp),%eax
80102c1c:	0f b6 10             	movzbl (%eax),%edx
80102c1f:	8b 45 fc             	mov    -0x4(%ebp),%eax
80102c22:	88 10                	mov    %dl,(%eax)
80102c24:	83 6d 10 01          	subl   $0x1,0x10(%ebp)
80102c28:	83 7d 10 00          	cmpl   $0x0,0x10(%ebp)
80102c2c:	75 e3                	jne    80102c11 <memmove+0x35>
80102c2e:	eb 21                	jmp    80102c51 <memmove+0x75>
80102c30:	8b 55 f8             	mov    -0x8(%ebp),%edx
80102c33:	8d 42 01             	lea    0x1(%edx),%eax
80102c36:	89 45 f8             	mov    %eax,-0x8(%ebp)
80102c39:	8b 45 fc             	mov    -0x4(%ebp),%eax
80102c3c:	8d 48 01             	lea    0x1(%eax),%ecx
80102c3f:	89 4d fc             	mov    %ecx,-0x4(%ebp)
80102c42:	0f b6 12             	movzbl (%edx),%edx
80102c45:	88 10                	mov    %dl,(%eax)
80102c47:	83 6d 10 01          	subl   $0x1,0x10(%ebp)
80102c4b:	83 7d 10 00          	cmpl   $0x0,0x10(%ebp)
80102c4f:	75 df                	jne    80102c30 <memmove+0x54>
80102c51:	8b 45 08             	mov    0x8(%ebp),%eax
80102c54:	c9                   	leave  
80102c55:	c3                   	ret    

80102c56 <memset>:
80102c56:	55                   	push   %ebp
80102c57:	89 e5                	mov    %esp,%ebp
80102c59:	83 ec 10             	sub    $0x10,%esp
80102c5c:	8b 45 0c             	mov    0xc(%ebp),%eax
80102c5f:	88 45 fb             	mov    %al,-0x5(%ebp)
80102c62:	8b 45 08             	mov    0x8(%ebp),%eax
80102c65:	89 45 fc             	mov    %eax,-0x4(%ebp)
80102c68:	eb 11                	jmp    80102c7b <memset+0x25>
80102c6a:	8b 45 fc             	mov    -0x4(%ebp),%eax
80102c6d:	0f b6 55 fb          	movzbl -0x5(%ebp),%edx
80102c71:	88 10                	mov    %dl,(%eax)
80102c73:	83 45 fc 01          	addl   $0x1,-0x4(%ebp)
80102c77:	83 6d 10 01          	subl   $0x1,0x10(%ebp)
80102c7b:	83 7d 10 00          	cmpl   $0x0,0x10(%ebp)
80102c7f:	75 e9                	jne    80102c6a <memset+0x14>
80102c81:	8b 45 08             	mov    0x8(%ebp),%eax
80102c84:	c9                   	leave  
80102c85:	c3                   	ret    

80102c86 <strcat>:
80102c86:	55                   	push   %ebp
80102c87:	89 e5                	mov    %esp,%ebp
80102c89:	83 ec 10             	sub    $0x10,%esp
80102c8c:	8b 45 08             	mov    0x8(%ebp),%eax
80102c8f:	89 45 fc             	mov    %eax,-0x4(%ebp)
80102c92:	eb 04                	jmp    80102c98 <strcat+0x12>
80102c94:	83 45 fc 01          	addl   $0x1,-0x4(%ebp)
80102c98:	8b 45 fc             	mov    -0x4(%ebp),%eax
80102c9b:	0f b6 00             	movzbl (%eax),%eax
80102c9e:	84 c0                	test   %al,%al
80102ca0:	75 f2                	jne    80102c94 <strcat+0xe>
80102ca2:	eb 08                	jmp    80102cac <strcat+0x26>
80102ca4:	83 45 fc 01          	addl   $0x1,-0x4(%ebp)
80102ca8:	83 45 0c 01          	addl   $0x1,0xc(%ebp)
80102cac:	8b 45 0c             	mov    0xc(%ebp),%eax
80102caf:	0f b6 10             	movzbl (%eax),%edx
80102cb2:	8b 45 fc             	mov    -0x4(%ebp),%eax
80102cb5:	88 10                	mov    %dl,(%eax)
80102cb7:	8b 45 fc             	mov    -0x4(%ebp),%eax
80102cba:	0f b6 00             	movzbl (%eax),%eax
80102cbd:	84 c0                	test   %al,%al
80102cbf:	75 e3                	jne    80102ca4 <strcat+0x1e>
80102cc1:	8b 45 08             	mov    0x8(%ebp),%eax
80102cc4:	c9                   	leave  
80102cc5:	c3                   	ret    

80102cc6 <strchr>:
80102cc6:	55                   	push   %ebp
80102cc7:	89 e5                	mov    %esp,%ebp
80102cc9:	83 ec 10             	sub    $0x10,%esp
80102ccc:	8b 45 0c             	mov    0xc(%ebp),%eax
80102ccf:	88 45 ff             	mov    %al,-0x1(%ebp)
80102cd2:	eb 15                	jmp    80102ce9 <strchr+0x23>
80102cd4:	8b 45 08             	mov    0x8(%ebp),%eax
80102cd7:	0f b6 00             	movzbl (%eax),%eax
80102cda:	84 c0                	test   %al,%al
80102cdc:	75 07                	jne    80102ce5 <strchr+0x1f>
80102cde:	b8 00 00 00 00       	mov    $0x0,%eax
80102ce3:	eb 12                	jmp    80102cf7 <strchr+0x31>
80102ce5:	83 45 08 01          	addl   $0x1,0x8(%ebp)
80102ce9:	8b 45 08             	mov    0x8(%ebp),%eax
80102cec:	0f b6 00             	movzbl (%eax),%eax
80102cef:	38 45 ff             	cmp    %al,-0x1(%ebp)
80102cf2:	75 e0                	jne    80102cd4 <strchr+0xe>
80102cf4:	8b 45 08             	mov    0x8(%ebp),%eax
80102cf7:	c9                   	leave  
80102cf8:	c3                   	ret    

80102cf9 <strcmp>:
80102cf9:	55                   	push   %ebp
80102cfa:	89 e5                	mov    %esp,%ebp
80102cfc:	eb 19                	jmp    80102d17 <strcmp+0x1e>
80102cfe:	8b 45 08             	mov    0x8(%ebp),%eax
80102d01:	0f b6 00             	movzbl (%eax),%eax
80102d04:	84 c0                	test   %al,%al
80102d06:	75 07                	jne    80102d0f <strcmp+0x16>
80102d08:	b8 00 00 00 00       	mov    $0x0,%eax
80102d0d:	eb 34                	jmp    80102d43 <strcmp+0x4a>
80102d0f:	83 45 08 01          	addl   $0x1,0x8(%ebp)
80102d13:	83 45 0c 01          	addl   $0x1,0xc(%ebp)
80102d17:	8b 45 08             	mov    0x8(%ebp),%eax
80102d1a:	0f b6 10             	movzbl (%eax),%edx
80102d1d:	8b 45 0c             	mov    0xc(%ebp),%eax
80102d20:	0f b6 00             	movzbl (%eax),%eax
80102d23:	38 c2                	cmp    %al,%dl
80102d25:	74 d7                	je     80102cfe <strcmp+0x5>
80102d27:	8b 45 08             	mov    0x8(%ebp),%eax
80102d2a:	0f b6 10             	movzbl (%eax),%edx
80102d2d:	8b 45 0c             	mov    0xc(%ebp),%eax
80102d30:	0f b6 00             	movzbl (%eax),%eax
80102d33:	38 c2                	cmp    %al,%dl
80102d35:	73 07                	jae    80102d3e <strcmp+0x45>
80102d37:	b8 ff ff ff ff       	mov    $0xffffffff,%eax
80102d3c:	eb 05                	jmp    80102d43 <strcmp+0x4a>
80102d3e:	b8 01 00 00 00       	mov    $0x1,%eax
80102d43:	5d                   	pop    %ebp
80102d44:	c3                   	ret    

80102d45 <strcpy>:
80102d45:	55                   	push   %ebp
80102d46:	89 e5                	mov    %esp,%ebp
80102d48:	83 ec 10             	sub    $0x10,%esp
80102d4b:	8b 45 08             	mov    0x8(%ebp),%eax
80102d4e:	89 45 fc             	mov    %eax,-0x4(%ebp)
80102d51:	90                   	nop
80102d52:	8b 55 0c             	mov    0xc(%ebp),%edx
80102d55:	8d 42 01             	lea    0x1(%edx),%eax
80102d58:	89 45 0c             	mov    %eax,0xc(%ebp)
80102d5b:	8b 45 fc             	mov    -0x4(%ebp),%eax
80102d5e:	8d 48 01             	lea    0x1(%eax),%ecx
80102d61:	89 4d fc             	mov    %ecx,-0x4(%ebp)
80102d64:	0f b6 12             	movzbl (%edx),%edx
80102d67:	88 10                	mov    %dl,(%eax)
80102d69:	0f b6 00             	movzbl (%eax),%eax
80102d6c:	84 c0                	test   %al,%al
80102d6e:	75 e2                	jne    80102d52 <strcpy+0xd>
80102d70:	8b 45 08             	mov    0x8(%ebp),%eax
80102d73:	c9                   	leave  
80102d74:	c3                   	ret    

80102d75 <strcspn>:
80102d75:	55                   	push   %ebp
80102d76:	89 e5                	mov    %esp,%ebp
80102d78:	83 ec 10             	sub    $0x10,%esp
80102d7b:	8b 45 08             	mov    0x8(%ebp),%eax
80102d7e:	89 45 fc             	mov    %eax,-0x4(%ebp)
80102d81:	eb 32                	jmp    80102db5 <strcspn+0x40>
80102d83:	8b 45 0c             	mov    0xc(%ebp),%eax
80102d86:	89 45 f8             	mov    %eax,-0x8(%ebp)
80102d89:	eb 1c                	jmp    80102da7 <strcspn+0x32>
80102d8b:	8b 45 fc             	mov    -0x4(%ebp),%eax
80102d8e:	0f b6 10             	movzbl (%eax),%edx
80102d91:	8b 45 f8             	mov    -0x8(%ebp),%eax
80102d94:	0f b6 00             	movzbl (%eax),%eax
80102d97:	38 c2                	cmp    %al,%dl
80102d99:	75 08                	jne    80102da3 <strcspn+0x2e>
80102d9b:	8b 45 fc             	mov    -0x4(%ebp),%eax
80102d9e:	2b 45 08             	sub    0x8(%ebp),%eax
80102da1:	eb 22                	jmp    80102dc5 <strcspn+0x50>
80102da3:	83 45 f8 01          	addl   $0x1,-0x8(%ebp)
80102da7:	8b 45 f8             	mov    -0x8(%ebp),%eax
80102daa:	0f b6 00             	movzbl (%eax),%eax
80102dad:	84 c0                	test   %al,%al
80102daf:	75 da                	jne    80102d8b <strcspn+0x16>
80102db1:	83 45 fc 01          	addl   $0x1,-0x4(%ebp)
80102db5:	8b 45 fc             	mov    -0x4(%ebp),%eax
80102db8:	0f b6 00             	movzbl (%eax),%eax
80102dbb:	84 c0                	test   %al,%al
80102dbd:	75 c4                	jne    80102d83 <strcspn+0xe>
80102dbf:	8b 45 fc             	mov    -0x4(%ebp),%eax
80102dc2:	2b 45 08             	sub    0x8(%ebp),%eax
80102dc5:	c9                   	leave  
80102dc6:	c3                   	ret    

80102dc7 <strlen>:
80102dc7:	55                   	push   %ebp
80102dc8:	89 e5                	mov    %esp,%ebp
80102dca:	83 ec 10             	sub    $0x10,%esp
80102dcd:	8b 45 08             	mov    0x8(%ebp),%eax
80102dd0:	89 45 fc             	mov    %eax,-0x4(%ebp)
80102dd3:	eb 04                	jmp    80102dd9 <strlen+0x12>
80102dd5:	83 45 fc 01          	addl   $0x1,-0x4(%ebp)
80102dd9:	8b 45 fc             	mov    -0x4(%ebp),%eax
80102ddc:	0f b6 00             	movzbl (%eax),%eax
80102ddf:	84 c0                	test   %al,%al
80102de1:	75 f2                	jne    80102dd5 <strlen+0xe>
80102de3:	8b 45 fc             	mov    -0x4(%ebp),%eax
80102de6:	2b 45 08             	sub    0x8(%ebp),%eax
80102de9:	c9                   	leave  
80102dea:	c3                   	ret    

80102deb <strncat>:
80102deb:	55                   	push   %ebp
80102dec:	89 e5                	mov    %esp,%ebp
80102dee:	83 ec 10             	sub    $0x10,%esp
80102df1:	8b 45 08             	mov    0x8(%ebp),%eax
80102df4:	89 45 fc             	mov    %eax,-0x4(%ebp)
80102df7:	eb 04                	jmp    80102dfd <strncat+0x12>
80102df9:	83 45 fc 01          	addl   $0x1,-0x4(%ebp)
80102dfd:	8b 45 fc             	mov    -0x4(%ebp),%eax
80102e00:	0f b6 00             	movzbl (%eax),%eax
80102e03:	84 c0                	test   %al,%al
80102e05:	75 f2                	jne    80102df9 <strncat+0xe>
80102e07:	eb 1b                	jmp    80102e24 <strncat+0x39>
80102e09:	8b 55 0c             	mov    0xc(%ebp),%edx
80102e0c:	8d 42 01             	lea    0x1(%edx),%eax
80102e0f:	89 45 0c             	mov    %eax,0xc(%ebp)
80102e12:	8b 45 fc             	mov    -0x4(%ebp),%eax
80102e15:	8d 48 01             	lea    0x1(%eax),%ecx
80102e18:	89 4d fc             	mov    %ecx,-0x4(%ebp)
80102e1b:	0f b6 12             	movzbl (%edx),%edx
80102e1e:	88 10                	mov    %dl,(%eax)
80102e20:	83 6d 10 01          	subl   $0x1,0x10(%ebp)
80102e24:	83 7d 10 00          	cmpl   $0x0,0x10(%ebp)
80102e28:	74 0a                	je     80102e34 <strncat+0x49>
80102e2a:	8b 45 0c             	mov    0xc(%ebp),%eax
80102e2d:	0f b6 00             	movzbl (%eax),%eax
80102e30:	84 c0                	test   %al,%al
80102e32:	75 d5                	jne    80102e09 <strncat+0x1e>
80102e34:	8b 45 fc             	mov    -0x4(%ebp),%eax
80102e37:	c6 00 00             	movb   $0x0,(%eax)
80102e3a:	8b 45 08             	mov    0x8(%ebp),%eax
80102e3d:	c9                   	leave  
80102e3e:	c3                   	ret    

80102e3f <strncmpy>:
80102e3f:	55                   	push   %ebp
80102e40:	89 e5                	mov    %esp,%ebp
80102e42:	eb 4b                	jmp    80102e8f <strncmpy+0x50>
80102e44:	8b 45 08             	mov    0x8(%ebp),%eax
80102e47:	0f b6 10             	movzbl (%eax),%edx
80102e4a:	8b 45 0c             	mov    0xc(%ebp),%eax
80102e4d:	0f b6 00             	movzbl (%eax),%eax
80102e50:	38 c2                	cmp    %al,%dl
80102e52:	74 1e                	je     80102e72 <strncmpy+0x33>
80102e54:	8b 45 08             	mov    0x8(%ebp),%eax
80102e57:	0f b6 10             	movzbl (%eax),%edx
80102e5a:	8b 45 0c             	mov    0xc(%ebp),%eax
80102e5d:	0f b6 00             	movzbl (%eax),%eax
80102e60:	38 c2                	cmp    %al,%dl
80102e62:	73 07                	jae    80102e6b <strncmpy+0x2c>
80102e64:	b8 ff ff ff ff       	mov    $0xffffffff,%eax
80102e69:	eb 2f                	jmp    80102e9a <strncmpy+0x5b>
80102e6b:	b8 01 00 00 00       	mov    $0x1,%eax
80102e70:	eb 28                	jmp    80102e9a <strncmpy+0x5b>
80102e72:	8b 45 08             	mov    0x8(%ebp),%eax
80102e75:	0f b6 00             	movzbl (%eax),%eax
80102e78:	84 c0                	test   %al,%al
80102e7a:	75 07                	jne    80102e83 <strncmpy+0x44>
80102e7c:	b8 00 00 00 00       	mov    $0x0,%eax
80102e81:	eb 17                	jmp    80102e9a <strncmpy+0x5b>
80102e83:	83 45 08 01          	addl   $0x1,0x8(%ebp)
80102e87:	83 45 0c 01          	addl   $0x1,0xc(%ebp)
80102e8b:	83 6d 10 01          	subl   $0x1,0x10(%ebp)
80102e8f:	83 7d 10 00          	cmpl   $0x0,0x10(%ebp)
80102e93:	75 af                	jne    80102e44 <strncmpy+0x5>
80102e95:	b8 00 00 00 00       	mov    $0x0,%eax
80102e9a:	5d                   	pop    %ebp
80102e9b:	c3                   	ret    

80102e9c <strncpy>:
80102e9c:	55                   	push   %ebp
80102e9d:	89 e5                	mov    %esp,%ebp
80102e9f:	83 ec 10             	sub    $0x10,%esp
80102ea2:	8b 45 08             	mov    0x8(%ebp),%eax
80102ea5:	89 45 fc             	mov    %eax,-0x4(%ebp)
80102ea8:	eb 1b                	jmp    80102ec5 <strncpy+0x29>
80102eaa:	8b 55 0c             	mov    0xc(%ebp),%edx
80102ead:	8d 42 01             	lea    0x1(%edx),%eax
80102eb0:	89 45 0c             	mov    %eax,0xc(%ebp)
80102eb3:	8b 45 fc             	mov    -0x4(%ebp),%eax
80102eb6:	8d 48 01             	lea    0x1(%eax),%ecx
80102eb9:	89 4d fc             	mov    %ecx,-0x4(%ebp)
80102ebc:	0f b6 12             	movzbl (%edx),%edx
80102ebf:	88 10                	mov    %dl,(%eax)
80102ec1:	83 6d 10 01          	subl   $0x1,0x10(%ebp)
80102ec5:	83 7d 10 00          	cmpl   $0x0,0x10(%ebp)
80102ec9:	74 1c                	je     80102ee7 <strncpy+0x4b>
80102ecb:	8b 45 0c             	mov    0xc(%ebp),%eax
80102ece:	0f b6 00             	movzbl (%eax),%eax
80102ed1:	84 c0                	test   %al,%al
80102ed3:	75 d5                	jne    80102eaa <strncpy+0xe>
80102ed5:	eb 10                	jmp    80102ee7 <strncpy+0x4b>
80102ed7:	8b 45 fc             	mov    -0x4(%ebp),%eax
80102eda:	8d 50 01             	lea    0x1(%eax),%edx
80102edd:	89 55 fc             	mov    %edx,-0x4(%ebp)
80102ee0:	c6 00 00             	movb   $0x0,(%eax)
80102ee3:	83 6d 10 01          	subl   $0x1,0x10(%ebp)
80102ee7:	83 7d 10 00          	cmpl   $0x0,0x10(%ebp)
80102eeb:	75 ea                	jne    80102ed7 <strncpy+0x3b>
80102eed:	8b 45 08             	mov    0x8(%ebp),%eax
80102ef0:	c9                   	leave  
80102ef1:	c3                   	ret    

80102ef2 <strpbrk>:
80102ef2:	55                   	push   %ebp
80102ef3:	89 e5                	mov    %esp,%ebp
80102ef5:	83 ec 10             	sub    $0x10,%esp
80102ef8:	8b 45 08             	mov    0x8(%ebp),%eax
80102efb:	89 45 fc             	mov    %eax,-0x4(%ebp)
80102efe:	eb 2f                	jmp    80102f2f <strpbrk+0x3d>
80102f00:	8b 45 0c             	mov    0xc(%ebp),%eax
80102f03:	89 45 f8             	mov    %eax,-0x8(%ebp)
80102f06:	eb 19                	jmp    80102f21 <strpbrk+0x2f>
80102f08:	8b 45 fc             	mov    -0x4(%ebp),%eax
80102f0b:	0f b6 10             	movzbl (%eax),%edx
80102f0e:	8b 45 f8             	mov    -0x8(%ebp),%eax
80102f11:	0f b6 00             	movzbl (%eax),%eax
80102f14:	38 c2                	cmp    %al,%dl
80102f16:	75 05                	jne    80102f1d <strpbrk+0x2b>
80102f18:	8b 45 fc             	mov    -0x4(%ebp),%eax
80102f1b:	eb 21                	jmp    80102f3e <strpbrk+0x4c>
80102f1d:	83 45 f8 01          	addl   $0x1,-0x8(%ebp)
80102f21:	8b 45 f8             	mov    -0x8(%ebp),%eax
80102f24:	0f b6 00             	movzbl (%eax),%eax
80102f27:	84 c0                	test   %al,%al
80102f29:	75 dd                	jne    80102f08 <strpbrk+0x16>
80102f2b:	83 45 fc 01          	addl   $0x1,-0x4(%ebp)
80102f2f:	8b 45 fc             	mov    -0x4(%ebp),%eax
80102f32:	0f b6 00             	movzbl (%eax),%eax
80102f35:	84 c0                	test   %al,%al
80102f37:	75 c7                	jne    80102f00 <strpbrk+0xe>
80102f39:	b8 00 00 00 00       	mov    $0x0,%eax
80102f3e:	c9                   	leave  
80102f3f:	c3                   	ret    

80102f40 <strrchr>:
80102f40:	55                   	push   %ebp
80102f41:	89 e5                	mov    %esp,%ebp
80102f43:	83 ec 10             	sub    $0x10,%esp
80102f46:	8b 45 0c             	mov    0xc(%ebp),%eax
80102f49:	88 45 fb             	mov    %al,-0x5(%ebp)
80102f4c:	c7 45 fc 00 00 00 00 	movl   $0x0,-0x4(%ebp)
80102f53:	8b 45 08             	mov    0x8(%ebp),%eax
80102f56:	0f b6 00             	movzbl (%eax),%eax
80102f59:	38 45 fb             	cmp    %al,-0x5(%ebp)
80102f5c:	75 06                	jne    80102f64 <strrchr+0x24>
80102f5e:	8b 45 08             	mov    0x8(%ebp),%eax
80102f61:	89 45 fc             	mov    %eax,-0x4(%ebp)
80102f64:	8b 45 08             	mov    0x8(%ebp),%eax
80102f67:	0f b6 00             	movzbl (%eax),%eax
80102f6a:	84 c0                	test   %al,%al
80102f6c:	75 05                	jne    80102f73 <strrchr+0x33>
80102f6e:	8b 45 fc             	mov    -0x4(%ebp),%eax
80102f71:	eb 06                	jmp    80102f79 <strrchr+0x39>
80102f73:	83 45 08 01          	addl   $0x1,0x8(%ebp)
80102f77:	eb da                	jmp    80102f53 <strrchr+0x13>
80102f79:	c9                   	leave  
80102f7a:	c3                   	ret    

80102f7b <strspn>:
80102f7b:	55                   	push   %ebp
80102f7c:	89 e5                	mov    %esp,%ebp
80102f7e:	83 ec 10             	sub    $0x10,%esp
80102f81:	8b 45 08             	mov    0x8(%ebp),%eax
80102f84:	89 45 fc             	mov    %eax,-0x4(%ebp)
80102f87:	eb 33                	jmp    80102fbc <strspn+0x41>
80102f89:	8b 45 0c             	mov    0xc(%ebp),%eax
80102f8c:	89 45 f8             	mov    %eax,-0x8(%ebp)
80102f8f:	8b 45 f8             	mov    -0x8(%ebp),%eax
80102f92:	0f b6 00             	movzbl (%eax),%eax
80102f95:	84 c0                	test   %al,%al
80102f97:	75 08                	jne    80102fa1 <strspn+0x26>
80102f99:	8b 45 fc             	mov    -0x4(%ebp),%eax
80102f9c:	2b 45 08             	sub    0x8(%ebp),%eax
80102f9f:	eb 2b                	jmp    80102fcc <strspn+0x51>
80102fa1:	8b 45 fc             	mov    -0x4(%ebp),%eax
80102fa4:	0f b6 10             	movzbl (%eax),%edx
80102fa7:	8b 45 f8             	mov    -0x8(%ebp),%eax
80102faa:	0f b6 00             	movzbl (%eax),%eax
80102fad:	38 c2                	cmp    %al,%dl
80102faf:	74 06                	je     80102fb7 <strspn+0x3c>
80102fb1:	83 45 f8 01          	addl   $0x1,-0x8(%ebp)
80102fb5:	eb d8                	jmp    80102f8f <strspn+0x14>
80102fb7:	90                   	nop
80102fb8:	83 45 fc 01          	addl   $0x1,-0x4(%ebp)
80102fbc:	8b 45 fc             	mov    -0x4(%ebp),%eax
80102fbf:	0f b6 00             	movzbl (%eax),%eax
80102fc2:	84 c0                	test   %al,%al
80102fc4:	75 c3                	jne    80102f89 <strspn+0xe>
80102fc6:	8b 45 fc             	mov    -0x4(%ebp),%eax
80102fc9:	2b 45 08             	sub    0x8(%ebp),%eax
80102fcc:	c9                   	leave  
80102fcd:	c3                   	ret    

80102fce <strstr>:
80102fce:	55                   	push   %ebp
80102fcf:	89 e5                	mov    %esp,%ebp
80102fd1:	83 ec 10             	sub    $0x10,%esp
80102fd4:	8b 45 0c             	mov    0xc(%ebp),%eax
80102fd7:	0f b6 00             	movzbl (%eax),%eax
80102fda:	84 c0                	test   %al,%al
80102fdc:	75 3f                	jne    8010301d <strstr+0x4f>
80102fde:	8b 45 08             	mov    0x8(%ebp),%eax
80102fe1:	eb 5d                	jmp    80103040 <strstr+0x72>
80102fe3:	8b 45 08             	mov    0x8(%ebp),%eax
80102fe6:	89 45 fc             	mov    %eax,-0x4(%ebp)
80102fe9:	8b 45 0c             	mov    0xc(%ebp),%eax
80102fec:	89 45 f8             	mov    %eax,-0x8(%ebp)
80102fef:	83 45 f8 01          	addl   $0x1,-0x8(%ebp)
80102ff3:	8b 45 f8             	mov    -0x8(%ebp),%eax
80102ff6:	0f b6 00             	movzbl (%eax),%eax
80102ff9:	84 c0                	test   %al,%al
80102ffb:	75 05                	jne    80103002 <strstr+0x34>
80102ffd:	8b 45 08             	mov    0x8(%ebp),%eax
80103000:	eb 3e                	jmp    80103040 <strstr+0x72>
80103002:	83 45 fc 01          	addl   $0x1,-0x4(%ebp)
80103006:	8b 45 fc             	mov    -0x4(%ebp),%eax
80103009:	0f b6 10             	movzbl (%eax),%edx
8010300c:	8b 45 f8             	mov    -0x8(%ebp),%eax
8010300f:	0f b6 00             	movzbl (%eax),%eax
80103012:	38 c2                	cmp    %al,%dl
80103014:	75 02                	jne    80103018 <strstr+0x4a>
80103016:	eb d7                	jmp    80102fef <strstr+0x21>
80103018:	90                   	nop
80103019:	83 45 08 01          	addl   $0x1,0x8(%ebp)
8010301d:	8b 45 0c             	mov    0xc(%ebp),%eax
80103020:	0f b6 00             	movzbl (%eax),%eax
80103023:	0f be c0             	movsbl %al,%eax
80103026:	50                   	push   %eax
80103027:	ff 75 08             	pushl  0x8(%ebp)
8010302a:	e8 97 fc ff ff       	call   80102cc6 <strchr>
8010302f:	83 c4 08             	add    $0x8,%esp
80103032:	89 45 08             	mov    %eax,0x8(%ebp)
80103035:	83 7d 08 00          	cmpl   $0x0,0x8(%ebp)
80103039:	75 a8                	jne    80102fe3 <strstr+0x15>
8010303b:	b8 00 00 00 00       	mov    $0x0,%eax
80103040:	c9                   	leave  
80103041:	c3                   	ret    

80103042 <strtok>:
80103042:	55                   	push   %ebp
80103043:	89 e5                	mov    %esp,%ebp
80103045:	83 ec 10             	sub    $0x10,%esp
80103048:	83 7d 08 00          	cmpl   $0x0,0x8(%ebp)
8010304c:	74 05                	je     80103053 <strtok+0x11>
8010304e:	8b 45 08             	mov    0x8(%ebp),%eax
80103051:	eb 05                	jmp    80103058 <strtok+0x16>
80103053:	a1 04 60 10 80       	mov    0x80106004,%eax
80103058:	89 45 f8             	mov    %eax,-0x8(%ebp)
8010305b:	ff 75 0c             	pushl  0xc(%ebp)
8010305e:	ff 75 f8             	pushl  -0x8(%ebp)
80103061:	e8 15 ff ff ff       	call   80102f7b <strspn>
80103066:	83 c4 08             	add    $0x8,%esp
80103069:	01 45 f8             	add    %eax,-0x8(%ebp)
8010306c:	8b 45 f8             	mov    -0x8(%ebp),%eax
8010306f:	0f b6 00             	movzbl (%eax),%eax
80103072:	84 c0                	test   %al,%al
80103074:	75 11                	jne    80103087 <strtok+0x45>
80103076:	c7 05 04 60 10 80 16 	movl   $0x80105516,0x80106004
8010307d:	55 10 80 
80103080:	b8 00 00 00 00       	mov    $0x0,%eax
80103085:	eb 37                	jmp    801030be <strtok+0x7c>
80103087:	ff 75 0c             	pushl  0xc(%ebp)
8010308a:	ff 75 f8             	pushl  -0x8(%ebp)
8010308d:	e8 e3 fc ff ff       	call   80102d75 <strcspn>
80103092:	83 c4 08             	add    $0x8,%esp
80103095:	8b 55 f8             	mov    -0x8(%ebp),%edx
80103098:	01 d0                	add    %edx,%eax
8010309a:	89 45 fc             	mov    %eax,-0x4(%ebp)
8010309d:	8b 45 fc             	mov    -0x4(%ebp),%eax
801030a0:	0f b6 00             	movzbl (%eax),%eax
801030a3:	84 c0                	test   %al,%al
801030a5:	74 0c                	je     801030b3 <strtok+0x71>
801030a7:	8b 45 fc             	mov    -0x4(%ebp),%eax
801030aa:	8d 50 01             	lea    0x1(%eax),%edx
801030ad:	89 55 fc             	mov    %edx,-0x4(%ebp)
801030b0:	c6 00 00             	movb   $0x0,(%eax)
801030b3:	8b 45 fc             	mov    -0x4(%ebp),%eax
801030b6:	a3 04 60 10 80       	mov    %eax,0x80106004
801030bb:	8b 45 f8             	mov    -0x8(%ebp),%eax
801030be:	c9                   	leave  
801030bf:	c3                   	ret    

801030c0 <cli>:
801030c0:	55                   	push   %ebp
801030c1:	89 e5                	mov    %esp,%ebp
801030c3:	fa                   	cli    
801030c4:	90                   	nop
801030c5:	5d                   	pop    %ebp
801030c6:	c3                   	ret    

801030c7 <sti>:
801030c7:	55                   	push   %ebp
801030c8:	89 e5                	mov    %esp,%ebp
801030ca:	fb                   	sti    
801030cb:	90                   	nop
801030cc:	5d                   	pop    %ebp
801030cd:	c3                   	ret    

801030ce <inb>:
801030ce:	55                   	push   %ebp
801030cf:	89 e5                	mov    %esp,%ebp
801030d1:	83 ec 14             	sub    $0x14,%esp
801030d4:	8b 45 08             	mov    0x8(%ebp),%eax
801030d7:	66 89 45 ec          	mov    %ax,-0x14(%ebp)
801030db:	0f b7 45 ec          	movzwl -0x14(%ebp),%eax
801030df:	89 c2                	mov    %eax,%edx
801030e1:	ec                   	in     (%dx),%al
801030e2:	88 45 ff             	mov    %al,-0x1(%ebp)
801030e5:	0f b6 45 ff          	movzbl -0x1(%ebp),%eax
801030e9:	c9                   	leave  
801030ea:	c3                   	ret    

801030eb <read_cr2>:
801030eb:	55                   	push   %ebp
801030ec:	89 e5                	mov    %esp,%ebp
801030ee:	83 ec 10             	sub    $0x10,%esp
801030f1:	c7 45 fc 00 00 00 00 	movl   $0x0,-0x4(%ebp)
801030f8:	0f 20 d0             	mov    %cr2,%eax
801030fb:	89 45 fc             	mov    %eax,-0x4(%ebp)
801030fe:	8b 45 fc             	mov    -0x4(%ebp),%eax
80103101:	c9                   	leave  
80103102:	c3                   	ret    

80103103 <getchar_from_keyboard>:
80103103:	55                   	push   %ebp
80103104:	89 e5                	mov    %esp,%ebp
80103106:	83 ec 10             	sub    $0x10,%esp
80103109:	6a 64                	push   $0x64
8010310b:	e8 be ff ff ff       	call   801030ce <inb>
80103110:	83 c4 04             	add    $0x4,%esp
80103113:	0f b6 c0             	movzbl %al,%eax
80103116:	89 45 f4             	mov    %eax,-0xc(%ebp)
80103119:	8b 45 f4             	mov    -0xc(%ebp),%eax
8010311c:	83 e0 01             	and    $0x1,%eax
8010311f:	85 c0                	test   %eax,%eax
80103121:	75 0a                	jne    8010312d <getchar_from_keyboard+0x2a>
80103123:	b8 ff ff ff ff       	mov    $0xffffffff,%eax
80103128:	e9 23 01 00 00       	jmp    80103250 <getchar_from_keyboard+0x14d>
8010312d:	6a 60                	push   $0x60
8010312f:	e8 9a ff ff ff       	call   801030ce <inb>
80103134:	83 c4 04             	add    $0x4,%esp
80103137:	0f b6 c0             	movzbl %al,%eax
8010313a:	89 45 fc             	mov    %eax,-0x4(%ebp)
8010313d:	81 7d fc e0 00 00 00 	cmpl   $0xe0,-0x4(%ebp)
80103144:	75 17                	jne    8010315d <getchar_from_keyboard+0x5a>
80103146:	a1 b8 06 11 80       	mov    0x801106b8,%eax
8010314b:	83 c8 40             	or     $0x40,%eax
8010314e:	a3 b8 06 11 80       	mov    %eax,0x801106b8
80103153:	b8 ff ff ff ff       	mov    $0xffffffff,%eax
80103158:	e9 f3 00 00 00       	jmp    80103250 <getchar_from_keyboard+0x14d>
8010315d:	8b 45 fc             	mov    -0x4(%ebp),%eax
80103160:	25 80 00 00 00       	and    $0x80,%eax
80103165:	85 c0                	test   %eax,%eax
80103167:	74 45                	je     801031ae <getchar_from_keyboard+0xab>
80103169:	a1 b8 06 11 80       	mov    0x801106b8,%eax
8010316e:	83 e0 40             	and    $0x40,%eax
80103171:	85 c0                	test   %eax,%eax
80103173:	75 08                	jne    8010317d <getchar_from_keyboard+0x7a>
80103175:	8b 45 fc             	mov    -0x4(%ebp),%eax
80103178:	83 e0 7f             	and    $0x7f,%eax
8010317b:	eb 03                	jmp    80103180 <getchar_from_keyboard+0x7d>
8010317d:	8b 45 fc             	mov    -0x4(%ebp),%eax
80103180:	89 45 fc             	mov    %eax,-0x4(%ebp)
80103183:	8b 45 fc             	mov    -0x4(%ebp),%eax
80103186:	05 20 60 10 80       	add    $0x80106020,%eax
8010318b:	0f b6 00             	movzbl (%eax),%eax
8010318e:	83 c8 40             	or     $0x40,%eax
80103191:	0f b6 c0             	movzbl %al,%eax
80103194:	f7 d0                	not    %eax
80103196:	89 c2                	mov    %eax,%edx
80103198:	a1 b8 06 11 80       	mov    0x801106b8,%eax
8010319d:	21 d0                	and    %edx,%eax
8010319f:	a3 b8 06 11 80       	mov    %eax,0x801106b8
801031a4:	b8 ff ff ff ff       	mov    $0xffffffff,%eax
801031a9:	e9 a2 00 00 00       	jmp    80103250 <getchar_from_keyboard+0x14d>
801031ae:	a1 b8 06 11 80       	mov    0x801106b8,%eax
801031b3:	83 e0 40             	and    $0x40,%eax
801031b6:	85 c0                	test   %eax,%eax
801031b8:	74 14                	je     801031ce <getchar_from_keyboard+0xcb>
801031ba:	81 4d fc 80 00 00 00 	orl    $0x80,-0x4(%ebp)
801031c1:	a1 b8 06 11 80       	mov    0x801106b8,%eax
801031c6:	83 e0 bf             	and    $0xffffffbf,%eax
801031c9:	a3 b8 06 11 80       	mov    %eax,0x801106b8
801031ce:	8b 45 fc             	mov    -0x4(%ebp),%eax
801031d1:	05 20 60 10 80       	add    $0x80106020,%eax
801031d6:	0f b6 00             	movzbl (%eax),%eax
801031d9:	0f b6 d0             	movzbl %al,%edx
801031dc:	a1 b8 06 11 80       	mov    0x801106b8,%eax
801031e1:	09 d0                	or     %edx,%eax
801031e3:	a3 b8 06 11 80       	mov    %eax,0x801106b8
801031e8:	8b 45 fc             	mov    -0x4(%ebp),%eax
801031eb:	05 20 61 10 80       	add    $0x80106120,%eax
801031f0:	0f b6 00             	movzbl (%eax),%eax
801031f3:	0f b6 d0             	movzbl %al,%edx
801031f6:	a1 b8 06 11 80       	mov    0x801106b8,%eax
801031fb:	31 d0                	xor    %edx,%eax
801031fd:	a3 b8 06 11 80       	mov    %eax,0x801106b8
80103202:	a1 b8 06 11 80       	mov    0x801106b8,%eax
80103207:	83 e0 03             	and    $0x3,%eax
8010320a:	8b 14 85 20 65 10 80 	mov    -0x7fef9ae0(,%eax,4),%edx
80103211:	8b 45 fc             	mov    -0x4(%ebp),%eax
80103214:	01 d0                	add    %edx,%eax
80103216:	0f b6 00             	movzbl (%eax),%eax
80103219:	0f b6 c0             	movzbl %al,%eax
8010321c:	89 45 f8             	mov    %eax,-0x8(%ebp)
8010321f:	a1 b8 06 11 80       	mov    0x801106b8,%eax
80103224:	83 e0 08             	and    $0x8,%eax
80103227:	85 c0                	test   %eax,%eax
80103229:	74 22                	je     8010324d <getchar_from_keyboard+0x14a>
8010322b:	83 7d f8 60          	cmpl   $0x60,-0x8(%ebp)
8010322f:	76 0c                	jbe    8010323d <getchar_from_keyboard+0x13a>
80103231:	83 7d f8 7a          	cmpl   $0x7a,-0x8(%ebp)
80103235:	77 06                	ja     8010323d <getchar_from_keyboard+0x13a>
80103237:	83 6d f8 20          	subl   $0x20,-0x8(%ebp)
8010323b:	eb 10                	jmp    8010324d <getchar_from_keyboard+0x14a>
8010323d:	83 7d f8 40          	cmpl   $0x40,-0x8(%ebp)
80103241:	76 0a                	jbe    8010324d <getchar_from_keyboard+0x14a>
80103243:	83 7d f8 5a          	cmpl   $0x5a,-0x8(%ebp)
80103247:	77 04                	ja     8010324d <getchar_from_keyboard+0x14a>
80103249:	83 45 f8 20          	addl   $0x20,-0x8(%ebp)
8010324d:	8b 45 f8             	mov    -0x8(%ebp),%eax
80103250:	c9                   	leave  
80103251:	c3                   	ret    

80103252 <keyboard_irq>:
80103252:	55                   	push   %ebp
80103253:	89 e5                	mov    %esp,%ebp
80103255:	83 ec 18             	sub    $0x18,%esp
80103258:	e8 63 fe ff ff       	call   801030c0 <cli>
8010325d:	e8 a1 fe ff ff       	call   80103103 <getchar_from_keyboard>
80103262:	88 45 f7             	mov    %al,-0x9(%ebp)
80103265:	80 7d f7 ff          	cmpb   $0xff,-0x9(%ebp)
80103269:	74 2f                	je     8010329a <keyboard_irq+0x48>
8010326b:	80 7d f7 e2          	cmpb   $0xe2,-0x9(%ebp)
8010326f:	75 07                	jne    80103278 <keyboard_irq+0x26>
80103271:	e8 f8 e2 ff ff       	call   8010156e <terminal_cursor_up>
80103276:	eb 22                	jmp    8010329a <keyboard_irq+0x48>
80103278:	80 7d f7 e3          	cmpb   $0xe3,-0x9(%ebp)
8010327c:	75 07                	jne    80103285 <keyboard_irq+0x33>
8010327e:	e8 22 e3 ff ff       	call   801015a5 <terminal_cursor_down>
80103283:	eb 15                	jmp    8010329a <keyboard_irq+0x48>
80103285:	0f b6 45 f7          	movzbl -0x9(%ebp),%eax
80103289:	83 ec 08             	sub    $0x8,%esp
8010328c:	50                   	push   %eax
8010328d:	68 18 55 10 80       	push   $0x80105518
80103292:	e8 9a ef ff ff       	call   80102231 <printf_>
80103297:	83 c4 10             	add    $0x10,%esp
8010329a:	e8 df f4 ff ff       	call   8010277e <apic_eoi>
8010329f:	e8 23 fe ff ff       	call   801030c7 <sti>
801032a4:	90                   	nop
801032a5:	c9                   	leave  
801032a6:	c3                   	ret    

801032a7 <timer_irq>:
801032a7:	55                   	push   %ebp
801032a8:	89 e5                	mov    %esp,%ebp
801032aa:	57                   	push   %edi
801032ab:	56                   	push   %esi
801032ac:	53                   	push   %ebx
801032ad:	83 ec 0c             	sub    $0xc,%esp
801032b0:	a1 b0 06 11 80       	mov    0x801106b0,%eax
801032b5:	8b 15 b4 06 11 80    	mov    0x801106b4,%edx
801032bb:	89 c1                	mov    %eax,%ecx
801032bd:	89 d3                	mov    %edx,%ebx
801032bf:	83 c1 01             	add    $0x1,%ecx
801032c2:	83 d3 00             	adc    $0x0,%ebx
801032c5:	89 ce                	mov    %ecx,%esi
801032c7:	89 df                	mov    %ebx,%edi
801032c9:	89 f3                	mov    %esi,%ebx
801032cb:	89 f9                	mov    %edi,%ecx
801032cd:	f0 0f c7 0d b0 06 11 	lock cmpxchg8b 0x801106b0
801032d4:	80 
801032d5:	0f 94 c1             	sete   %cl
801032d8:	84 c9                	test   %cl,%cl
801032da:	74 df                	je     801032bb <timer_irq+0x14>
801032dc:	e8 9d f4 ff ff       	call   8010277e <apic_eoi>
801032e1:	90                   	nop
801032e2:	83 c4 0c             	add    $0xc,%esp
801032e5:	5b                   	pop    %ebx
801032e6:	5e                   	pop    %esi
801032e7:	5f                   	pop    %edi
801032e8:	5d                   	pop    %ebp
801032e9:	c3                   	ret    

801032ea <dummy_irq>:
801032ea:	55                   	push   %ebp
801032eb:	89 e5                	mov    %esp,%ebp
801032ed:	90                   	nop
801032ee:	5d                   	pop    %ebp
801032ef:	c3                   	ret    

801032f0 <spurious_irq>:
801032f0:	55                   	push   %ebp
801032f1:	89 e5                	mov    %esp,%ebp
801032f3:	83 ec 08             	sub    $0x8,%esp
801032f6:	e8 83 f4 ff ff       	call   8010277e <apic_eoi>
801032fb:	90                   	nop
801032fc:	c9                   	leave  
801032fd:	c3                   	ret    

801032fe <pagefault_irq>:
801032fe:	55                   	push   %ebp
801032ff:	89 e5                	mov    %esp,%ebp
80103301:	56                   	push   %esi
80103302:	53                   	push   %ebx
80103303:	8b 45 08             	mov    0x8(%ebp),%eax
80103306:	8b 70 24             	mov    0x24(%eax),%esi
80103309:	8b 45 08             	mov    0x8(%ebp),%eax
8010330c:	8b 58 28             	mov    0x28(%eax),%ebx
8010330f:	e8 d7 fd ff ff       	call   801030eb <read_cr2>
80103314:	56                   	push   %esi
80103315:	53                   	push   %ebx
80103316:	50                   	push   %eax
80103317:	68 1c 55 10 80       	push   $0x8010551c
8010331c:	e8 10 ef ff ff       	call   80102231 <printf_>
80103321:	83 c4 10             	add    $0x10,%esp
80103324:	83 ec 0c             	sub    $0xc,%esp
80103327:	68 4d 55 10 80       	push   $0x8010554d
8010332c:	e8 70 f4 ff ff       	call   801027a1 <panic>
80103331:	83 c4 10             	add    $0x10,%esp
80103334:	90                   	nop
80103335:	8d 65 f8             	lea    -0x8(%ebp),%esp
80103338:	5b                   	pop    %ebx
80103339:	5e                   	pop    %esi
8010333a:	5d                   	pop    %ebp
8010333b:	c3                   	ret    

8010333c <gdt_register>:
8010333c:	55                   	push   %ebp
8010333d:	89 e5                	mov    %esp,%ebp
8010333f:	83 ec 04             	sub    $0x4,%esp
80103342:	8b 45 14             	mov    0x14(%ebp),%eax
80103345:	88 45 fc             	mov    %al,-0x4(%ebp)
80103348:	8b 45 0c             	mov    0xc(%ebp),%eax
8010334b:	89 c2                	mov    %eax,%edx
8010334d:	8b 45 08             	mov    0x8(%ebp),%eax
80103350:	66 89 14 c5 c2 06 11 	mov    %dx,-0x7feef93e(,%eax,8)
80103357:	80 
80103358:	8b 45 0c             	mov    0xc(%ebp),%eax
8010335b:	c1 e8 10             	shr    $0x10,%eax
8010335e:	89 c2                	mov    %eax,%edx
80103360:	8b 45 08             	mov    0x8(%ebp),%eax
80103363:	88 14 c5 c4 06 11 80 	mov    %dl,-0x7feef93c(,%eax,8)
8010336a:	8b 45 0c             	mov    0xc(%ebp),%eax
8010336d:	c1 e8 18             	shr    $0x18,%eax
80103370:	89 c2                	mov    %eax,%edx
80103372:	8b 45 08             	mov    0x8(%ebp),%eax
80103375:	88 14 c5 c7 06 11 80 	mov    %dl,-0x7feef939(,%eax,8)
8010337c:	8b 45 10             	mov    0x10(%ebp),%eax
8010337f:	89 c2                	mov    %eax,%edx
80103381:	8b 45 08             	mov    0x8(%ebp),%eax
80103384:	66 89 14 c5 c0 06 11 	mov    %dx,-0x7feef940(,%eax,8)
8010338b:	80 
8010338c:	8b 45 10             	mov    0x10(%ebp),%eax
8010338f:	c1 e8 10             	shr    $0x10,%eax
80103392:	83 e0 0f             	and    $0xf,%eax
80103395:	89 c2                	mov    %eax,%edx
80103397:	8b 45 08             	mov    0x8(%ebp),%eax
8010339a:	88 14 c5 c6 06 11 80 	mov    %dl,-0x7feef93a(,%eax,8)
801033a1:	8b 45 08             	mov    0x8(%ebp),%eax
801033a4:	0f b6 04 c5 c6 06 11 	movzbl -0x7feef93a(,%eax,8),%eax
801033ab:	80 
801033ac:	83 c8 c0             	or     $0xffffffc0,%eax
801033af:	89 c2                	mov    %eax,%edx
801033b1:	8b 45 08             	mov    0x8(%ebp),%eax
801033b4:	88 14 c5 c6 06 11 80 	mov    %dl,-0x7feef93a(,%eax,8)
801033bb:	0f b6 45 fc          	movzbl -0x4(%ebp),%eax
801033bf:	83 c8 80             	or     $0xffffff80,%eax
801033c2:	89 c2                	mov    %eax,%edx
801033c4:	8b 45 08             	mov    0x8(%ebp),%eax
801033c7:	88 14 c5 c5 06 11 80 	mov    %dl,-0x7feef93b(,%eax,8)
801033ce:	90                   	nop
801033cf:	c9                   	leave  
801033d0:	c3                   	ret    

801033d1 <reload_tss>:
801033d1:	55                   	push   %ebp
801033d2:	89 e5                	mov    %esp,%ebp
801033d4:	0f b6 05 ed 06 11 80 	movzbl 0x801106ed,%eax
801033db:	83 e0 fd             	and    $0xfffffffd,%eax
801033de:	a2 ed 06 11 80       	mov    %al,0x801106ed
801033e3:	66 b8 2b 00          	mov    $0x2b,%ax
801033e7:	0f 00 d8             	ltr    %ax
801033ea:	90                   	nop
801033eb:	5d                   	pop    %ebp
801033ec:	c3                   	ret    

801033ed <init_gdt>:
801033ed:	55                   	push   %ebp
801033ee:	89 e5                	mov    %esp,%ebp
801033f0:	6a 00                	push   $0x0
801033f2:	6a 00                	push   $0x0
801033f4:	6a 00                	push   $0x0
801033f6:	6a 00                	push   $0x0
801033f8:	e8 3f ff ff ff       	call   8010333c <gdt_register>
801033fd:	83 c4 10             	add    $0x10,%esp
80103400:	6a 1a                	push   $0x1a
80103402:	6a ff                	push   $0xffffffff
80103404:	6a 00                	push   $0x0
80103406:	6a 01                	push   $0x1
80103408:	e8 2f ff ff ff       	call   8010333c <gdt_register>
8010340d:	83 c4 10             	add    $0x10,%esp
80103410:	6a 12                	push   $0x12
80103412:	6a ff                	push   $0xffffffff
80103414:	6a 00                	push   $0x0
80103416:	6a 02                	push   $0x2
80103418:	e8 1f ff ff ff       	call   8010333c <gdt_register>
8010341d:	83 c4 10             	add    $0x10,%esp
80103420:	6a 7a                	push   $0x7a
80103422:	6a ff                	push   $0xffffffff
80103424:	6a 00                	push   $0x0
80103426:	6a 03                	push   $0x3
80103428:	e8 0f ff ff ff       	call   8010333c <gdt_register>
8010342d:	83 c4 10             	add    $0x10,%esp
80103430:	6a 72                	push   $0x72
80103432:	6a ff                	push   $0xffffffff
80103434:	6a 00                	push   $0x0
80103436:	6a 04                	push   $0x4
80103438:	e8 ff fe ff ff       	call   8010333c <gdt_register>
8010343d:	83 c4 10             	add    $0x10,%esp
80103440:	b8 00 07 11 80       	mov    $0x80110700,%eax
80103445:	6a 09                	push   $0x9
80103447:	6a 63                	push   $0x63
80103449:	50                   	push   %eax
8010344a:	6a 05                	push   $0x5
8010344c:	e8 eb fe ff ff       	call   8010333c <gdt_register>
80103451:	83 c4 10             	add    $0x10,%esp
80103454:	b8 c0 06 11 80       	mov    $0x801106c0,%eax
80103459:	a3 f2 06 11 80       	mov    %eax,0x801106f2
8010345e:	66 c7 05 f0 06 11 80 	movw   $0x2f,0x801106f0
80103465:	2f 00 
80103467:	b8 f0 06 11 80       	mov    $0x801106f0,%eax
8010346c:	0f 01 10             	lgdtl  (%eax)
8010346f:	66 b8 10 00          	mov    $0x10,%ax
80103473:	8e d8                	mov    %eax,%ds
80103475:	8e c0                	mov    %eax,%es
80103477:	8e e0                	mov    %eax,%fs
80103479:	8e e8                	mov    %eax,%gs
8010347b:	8e d0                	mov    %eax,%ss
8010347d:	ea 84 34 10 80 08 00 	ljmp   $0x8,$0x80103484
80103484:	e8 48 ff ff ff       	call   801033d1 <reload_tss>
80103489:	90                   	nop
8010348a:	c9                   	leave  
8010348b:	c3                   	ret    

8010348c <load_gdt>:
8010348c:	8b 44 24 04          	mov    0x4(%esp),%eax
80103490:	0f 01 10             	lgdtl  (%eax)
80103493:	66 b8 10 00          	mov    $0x10,%ax
80103497:	8e d8                	mov    %eax,%ds
80103499:	8e c0                	mov    %eax,%es
8010349b:	8e e0                	mov    %eax,%fs
8010349d:	8e e8                	mov    %eax,%gs
8010349f:	8e d0                	mov    %eax,%ss
801034a1:	66 b8 2b 00          	mov    $0x2b,%ax
801034a5:	0f 00 d8             	ltr    %ax
801034a8:	ea af 34 10 80 08 00 	ljmp   $0x8,$0x801034af

801034af <.flush>:
801034af:	c3                   	ret    

801034b0 <detect_memory>:
801034b0:	55                   	push   %ebp
801034b1:	89 e5                	mov    %esp,%ebp
801034b3:	57                   	push   %edi
801034b4:	56                   	push   %esi
801034b5:	53                   	push   %ebx
801034b6:	83 ec 1c             	sub    $0x1c,%esp
801034b9:	a1 30 b8 10 80       	mov    0x8010b830,%eax
801034be:	8b 00                	mov    (%eax),%eax
801034c0:	83 e0 40             	and    $0x40,%eax
801034c3:	85 c0                	test   %eax,%eax
801034c5:	75 10                	jne    801034d7 <detect_memory+0x27>
801034c7:	83 ec 0c             	sub    $0xc,%esp
801034ca:	68 c8 55 10 80       	push   $0x801055c8
801034cf:	e8 cd f2 ff ff       	call   801027a1 <panic>
801034d4:	83 c4 10             	add    $0x10,%esp
801034d7:	83 ec 0c             	sub    $0xc,%esp
801034da:	68 ee 55 10 80       	push   $0x801055ee
801034df:	e8 4d ed ff ff       	call   80102231 <printf_>
801034e4:	83 c4 10             	add    $0x10,%esp
801034e7:	83 ec 0c             	sub    $0xc,%esp
801034ea:	68 00 56 10 80       	push   $0x80105600
801034ef:	e8 3d ed ff ff       	call   80102231 <printf_>
801034f4:	83 c4 10             	add    $0x10,%esp
801034f7:	a1 30 b8 10 80       	mov    0x8010b830,%eax
801034fc:	8b 40 30             	mov    0x30(%eax),%eax
801034ff:	89 45 e4             	mov    %eax,-0x1c(%ebp)
80103502:	e9 98 00 00 00       	jmp    8010359f <detect_memory+0xef>
80103507:	8b 15 80 47 11 80    	mov    0x80114780,%edx
8010350d:	89 d0                	mov    %edx,%eax
8010350f:	01 c0                	add    %eax,%eax
80103511:	01 d0                	add    %edx,%eax
80103513:	c1 e0 03             	shl    $0x3,%eax
80103516:	8d 90 a0 47 11 80    	lea    -0x7feeb860(%eax),%edx
8010351c:	8b 45 e4             	mov    -0x1c(%ebp),%eax
8010351f:	8b 08                	mov    (%eax),%ecx
80103521:	89 0a                	mov    %ecx,(%edx)
80103523:	8b 48 04             	mov    0x4(%eax),%ecx
80103526:	89 4a 04             	mov    %ecx,0x4(%edx)
80103529:	8b 48 08             	mov    0x8(%eax),%ecx
8010352c:	89 4a 08             	mov    %ecx,0x8(%edx)
8010352f:	8b 48 0c             	mov    0xc(%eax),%ecx
80103532:	89 4a 0c             	mov    %ecx,0xc(%edx)
80103535:	8b 48 10             	mov    0x10(%eax),%ecx
80103538:	89 4a 10             	mov    %ecx,0x10(%edx)
8010353b:	8b 40 14             	mov    0x14(%eax),%eax
8010353e:	89 42 14             	mov    %eax,0x14(%edx)
80103541:	8b 45 e4             	mov    -0x1c(%ebp),%eax
80103544:	8b 78 14             	mov    0x14(%eax),%edi
80103547:	8b 45 e4             	mov    -0x1c(%ebp),%eax
8010354a:	8b 40 14             	mov    0x14(%eax),%eax
8010354d:	8b 34 85 30 65 10 80 	mov    -0x7fef9ad0(,%eax,4),%esi
80103554:	8b 45 e4             	mov    -0x1c(%ebp),%eax
80103557:	8b 58 0c             	mov    0xc(%eax),%ebx
8010355a:	8b 45 e4             	mov    -0x1c(%ebp),%eax
8010355d:	8b 48 10             	mov    0x10(%eax),%ecx
80103560:	8b 45 e4             	mov    -0x1c(%ebp),%eax
80103563:	8b 50 04             	mov    0x4(%eax),%edx
80103566:	8b 45 e4             	mov    -0x1c(%ebp),%eax
80103569:	8b 40 08             	mov    0x8(%eax),%eax
8010356c:	83 ec 04             	sub    $0x4,%esp
8010356f:	57                   	push   %edi
80103570:	56                   	push   %esi
80103571:	53                   	push   %ebx
80103572:	51                   	push   %ecx
80103573:	52                   	push   %edx
80103574:	50                   	push   %eax
80103575:	68 30 56 10 80       	push   $0x80105630
8010357a:	e8 b2 ec ff ff       	call   80102231 <printf_>
8010357f:	83 c4 20             	add    $0x20,%esp
80103582:	a1 80 47 11 80       	mov    0x80114780,%eax
80103587:	83 c0 01             	add    $0x1,%eax
8010358a:	a3 80 47 11 80       	mov    %eax,0x80114780
8010358f:	8b 45 e4             	mov    -0x1c(%ebp),%eax
80103592:	8b 10                	mov    (%eax),%edx
80103594:	8b 45 e4             	mov    -0x1c(%ebp),%eax
80103597:	01 d0                	add    %edx,%eax
80103599:	83 c0 04             	add    $0x4,%eax
8010359c:	89 45 e4             	mov    %eax,-0x1c(%ebp)
8010359f:	a1 30 b8 10 80       	mov    0x8010b830,%eax
801035a4:	8b 50 30             	mov    0x30(%eax),%edx
801035a7:	a1 30 b8 10 80       	mov    0x8010b830,%eax
801035ac:	8b 40 2c             	mov    0x2c(%eax),%eax
801035af:	01 c2                	add    %eax,%edx
801035b1:	8b 45 e4             	mov    -0x1c(%ebp),%eax
801035b4:	39 c2                	cmp    %eax,%edx
801035b6:	0f 87 4b ff ff ff    	ja     80103507 <detect_memory+0x57>
801035bc:	90                   	nop
801035bd:	90                   	nop
801035be:	8d 65 f4             	lea    -0xc(%ebp),%esp
801035c1:	5b                   	pop    %ebx
801035c2:	5e                   	pop    %esi
801035c3:	5f                   	pop    %edi
801035c4:	5d                   	pop    %ebp
801035c5:	c3                   	ret    

801035c6 <load_cr3>:
801035c6:	55                   	push   %ebp
801035c7:	89 e5                	mov    %esp,%ebp
801035c9:	8b 45 08             	mov    0x8(%ebp),%eax
801035cc:	0f 22 d8             	mov    %eax,%cr3
801035cf:	90                   	nop
801035d0:	5d                   	pop    %ebp
801035d1:	c3                   	ret    

801035d2 <get_all_memory>:
801035d2:	55                   	push   %ebp
801035d3:	89 e5                	mov    %esp,%ebp
801035d5:	83 ec 28             	sub    $0x28,%esp
801035d8:	c7 45 f4 00 00 00 00 	movl   $0x0,-0xc(%ebp)
801035df:	e9 f2 00 00 00       	jmp    801036d6 <get_all_memory+0x104>
801035e4:	8b 55 f4             	mov    -0xc(%ebp),%edx
801035e7:	89 d0                	mov    %edx,%eax
801035e9:	01 c0                	add    %eax,%eax
801035eb:	01 d0                	add    %edx,%eax
801035ed:	c1 e0 03             	shl    $0x3,%eax
801035f0:	05 b0 47 11 80       	add    $0x801147b0,%eax
801035f5:	8b 40 04             	mov    0x4(%eax),%eax
801035f8:	83 f8 01             	cmp    $0x1,%eax
801035fb:	0f 85 d1 00 00 00    	jne    801036d2 <get_all_memory+0x100>
80103601:	8b 55 f4             	mov    -0xc(%ebp),%edx
80103604:	89 d0                	mov    %edx,%eax
80103606:	01 c0                	add    %eax,%eax
80103608:	01 d0                	add    %edx,%eax
8010360a:	c1 e0 03             	shl    $0x3,%eax
8010360d:	05 a0 47 11 80       	add    $0x801147a0,%eax
80103612:	8b 40 04             	mov    0x4(%eax),%eax
80103615:	3d ff ff 0f 00       	cmp    $0xfffff,%eax
8010361a:	0f 86 b2 00 00 00    	jbe    801036d2 <get_all_memory+0x100>
80103620:	b8 91 00 10 80       	mov    $0x80100091,%eax
80103625:	f7 d8                	neg    %eax
80103627:	89 45 ec             	mov    %eax,-0x14(%ebp)
8010362a:	8b 55 f4             	mov    -0xc(%ebp),%edx
8010362d:	89 d0                	mov    %edx,%eax
8010362f:	01 c0                	add    %eax,%eax
80103631:	01 d0                	add    %edx,%eax
80103633:	c1 e0 03             	shl    $0x3,%eax
80103636:	05 a0 47 11 80       	add    $0x801147a0,%eax
8010363b:	8b 40 0c             	mov    0xc(%eax),%eax
8010363e:	89 45 e8             	mov    %eax,-0x18(%ebp)
80103641:	8b 45 e8             	mov    -0x18(%ebp),%eax
80103644:	39 45 ec             	cmp    %eax,-0x14(%ebp)
80103647:	0f 46 45 ec          	cmovbe -0x14(%ebp),%eax
8010364b:	89 45 f0             	mov    %eax,-0x10(%ebp)
8010364e:	8b 55 f4             	mov    -0xc(%ebp),%edx
80103651:	89 d0                	mov    %edx,%eax
80103653:	01 c0                	add    %eax,%eax
80103655:	01 d0                	add    %edx,%eax
80103657:	c1 e0 03             	shl    $0x3,%eax
8010365a:	05 b0 47 11 80       	add    $0x801147b0,%eax
8010365f:	8b 00                	mov    (%eax),%eax
80103661:	85 c0                	test   %eax,%eax
80103663:	74 06                	je     8010366b <get_all_memory+0x99>
80103665:	8b 45 ec             	mov    -0x14(%ebp),%eax
80103668:	89 45 f0             	mov    %eax,-0x10(%ebp)
8010366b:	8b 55 f4             	mov    -0xc(%ebp),%edx
8010366e:	89 d0                	mov    %edx,%eax
80103670:	01 c0                	add    %eax,%eax
80103672:	01 d0                	add    %edx,%eax
80103674:	c1 e0 03             	shl    $0x3,%eax
80103677:	05 a0 47 11 80       	add    $0x801147a0,%eax
8010367c:	8b 40 04             	mov    0x4(%eax),%eax
8010367f:	89 45 e4             	mov    %eax,-0x1c(%ebp)
80103682:	8b 55 e4             	mov    -0x1c(%ebp),%edx
80103685:	8b 45 f0             	mov    -0x10(%ebp),%eax
80103688:	01 d0                	add    %edx,%eax
8010368a:	89 45 e0             	mov    %eax,-0x20(%ebp)
8010368d:	8b 45 f4             	mov    -0xc(%ebp),%eax
80103690:	8d 50 01             	lea    0x1(%eax),%edx
80103693:	a1 80 47 11 80       	mov    0x80114780,%eax
80103698:	39 c2                	cmp    %eax,%edx
8010369a:	7d 19                	jge    801036b5 <get_all_memory+0xe3>
8010369c:	8b 45 f4             	mov    -0xc(%ebp),%eax
8010369f:	8d 50 01             	lea    0x1(%eax),%edx
801036a2:	89 d0                	mov    %edx,%eax
801036a4:	01 c0                	add    %eax,%eax
801036a6:	01 d0                	add    %edx,%eax
801036a8:	c1 e0 03             	shl    $0x3,%eax
801036ab:	05 a0 47 11 80       	add    $0x801147a0,%eax
801036b0:	8b 40 04             	mov    0x4(%eax),%eax
801036b3:	eb 05                	jmp    801036ba <get_all_memory+0xe8>
801036b5:	b8 00 00 00 c0       	mov    $0xc0000000,%eax
801036ba:	a3 04 c0 11 80       	mov    %eax,0x8011c004
801036bf:	8b 45 08             	mov    0x8(%ebp),%eax
801036c2:	8b 55 e4             	mov    -0x1c(%ebp),%edx
801036c5:	89 10                	mov    %edx,(%eax)
801036c7:	8b 45 08             	mov    0x8(%ebp),%eax
801036ca:	8b 55 e0             	mov    -0x20(%ebp),%edx
801036cd:	89 50 04             	mov    %edx,0x4(%eax)
801036d0:	eb 32                	jmp    80103704 <get_all_memory+0x132>
801036d2:	83 45 f4 01          	addl   $0x1,-0xc(%ebp)
801036d6:	a1 80 47 11 80       	mov    0x80114780,%eax
801036db:	39 45 f4             	cmp    %eax,-0xc(%ebp)
801036de:	0f 8c 00 ff ff ff    	jl     801035e4 <get_all_memory+0x12>
801036e4:	83 ec 0c             	sub    $0xc,%esp
801036e7:	68 58 56 10 80       	push   $0x80105658
801036ec:	e8 b0 f0 ff ff       	call   801027a1 <panic>
801036f1:	83 c4 10             	add    $0x10,%esp
801036f4:	8b 45 08             	mov    0x8(%ebp),%eax
801036f7:	c7 00 00 00 00 00    	movl   $0x0,(%eax)
801036fd:	c7 40 04 00 00 00 00 	movl   $0x0,0x4(%eax)
80103704:	8b 45 08             	mov    0x8(%ebp),%eax
80103707:	c9                   	leave  
80103708:	c2 04 00             	ret    $0x4

8010370b <virt2phys>:
8010370b:	55                   	push   %ebp
8010370c:	89 e5                	mov    %esp,%ebp
8010370e:	8b 45 08             	mov    0x8(%ebp),%eax
80103711:	ba 00 00 00 80       	mov    $0x80000000,%edx
80103716:	29 d0                	sub    %edx,%eax
80103718:	5d                   	pop    %ebp
80103719:	c3                   	ret    

8010371a <phys2virt>:
8010371a:	55                   	push   %ebp
8010371b:	89 e5                	mov    %esp,%ebp
8010371d:	8b 45 08             	mov    0x8(%ebp),%eax
80103720:	ba 00 00 00 80       	mov    $0x80000000,%edx
80103725:	01 d0                	add    %edx,%eax
80103727:	5d                   	pop    %ebp
80103728:	c3                   	ret    

80103729 <init_kalloc_early>:
80103729:	55                   	push   %ebp
8010372a:	89 e5                	mov    %esp,%ebp
8010372c:	83 ec 28             	sub    $0x28,%esp
8010372f:	8d 45 e4             	lea    -0x1c(%ebp),%eax
80103732:	83 ec 0c             	sub    $0xc,%esp
80103735:	50                   	push   %eax
80103736:	e8 97 fe ff ff       	call   801035d2 <get_all_memory>
8010373b:	83 c4 0c             	add    $0xc,%esp
8010373e:	8b 45 e4             	mov    -0x1c(%ebp),%eax
80103741:	83 ec 0c             	sub    $0xc,%esp
80103744:	50                   	push   %eax
80103745:	e8 d0 ff ff ff       	call   8010371a <phys2virt>
8010374a:	83 c4 10             	add    $0x10,%esp
8010374d:	3d a6 10 52 80       	cmp    $0x805210a6,%eax
80103752:	73 16                	jae    8010376a <init_kalloc_early+0x41>
80103754:	8b 45 e8             	mov    -0x18(%ebp),%eax
80103757:	83 ec 0c             	sub    $0xc,%esp
8010375a:	50                   	push   %eax
8010375b:	e8 ba ff ff ff       	call   8010371a <phys2virt>
80103760:	83 c4 10             	add    $0x10,%esp
80103763:	3d a6 10 52 80       	cmp    $0x805210a6,%eax
80103768:	77 10                	ja     8010377a <init_kalloc_early+0x51>
8010376a:	83 ec 0c             	sub    $0xc,%esp
8010376d:	68 69 56 10 80       	push   $0x80105669
80103772:	e8 2a f0 ff ff       	call   801027a1 <panic>
80103777:	83 c4 10             	add    $0x10,%esp
8010377a:	b8 a6 10 52 80       	mov    $0x805210a6,%eax
8010377f:	05 ff 0f 00 00       	add    $0xfff,%eax
80103784:	25 00 f0 ff ff       	and    $0xfffff000,%eax
80103789:	89 45 f0             	mov    %eax,-0x10(%ebp)
8010378c:	c7 05 00 c0 11 80 00 	movl   $0x0,0x8011c000
80103793:	00 00 00 
80103796:	8b 45 e8             	mov    -0x18(%ebp),%eax
80103799:	83 ec 0c             	sub    $0xc,%esp
8010379c:	50                   	push   %eax
8010379d:	e8 78 ff ff ff       	call   8010371a <phys2virt>
801037a2:	83 c4 10             	add    $0x10,%esp
801037a5:	25 00 00 c0 ff       	and    $0xffc00000,%eax
801037aa:	89 45 f4             	mov    %eax,-0xc(%ebp)
801037ad:	8b 55 f4             	mov    -0xc(%ebp),%edx
801037b0:	a1 04 c0 11 80       	mov    0x8011c004,%eax
801037b5:	39 c2                	cmp    %eax,%edx
801037b7:	76 0d                	jbe    801037c6 <init_kalloc_early+0x9d>
801037b9:	a1 04 c0 11 80       	mov    0x8011c004,%eax
801037be:	25 00 00 c0 ff       	and    $0xffc00000,%eax
801037c3:	89 45 f4             	mov    %eax,-0xc(%ebp)
801037c6:	8b 45 f0             	mov    -0x10(%ebp),%eax
801037c9:	89 45 ec             	mov    %eax,-0x14(%ebp)
801037cc:	8b 45 ec             	mov    -0x14(%ebp),%eax
801037cf:	c7 00 00 00 00 00    	movl   $0x0,(%eax)
801037d5:	8b 45 ec             	mov    -0x14(%ebp),%eax
801037d8:	a3 00 c0 11 80       	mov    %eax,0x8011c000
801037dd:	8b 45 f4             	mov    -0xc(%ebp),%eax
801037e0:	2b 45 f0             	sub    -0x10(%ebp),%eax
801037e3:	8d 90 ff 0f 00 00    	lea    0xfff(%eax),%edx
801037e9:	85 c0                	test   %eax,%eax
801037eb:	0f 48 c2             	cmovs  %edx,%eax
801037ee:	c1 f8 0c             	sar    $0xc,%eax
801037f1:	89 c2                	mov    %eax,%edx
801037f3:	a1 00 c0 11 80       	mov    0x8011c000,%eax
801037f8:	89 50 04             	mov    %edx,0x4(%eax)
801037fb:	83 ec 04             	sub    $0x4,%esp
801037fe:	ff 75 f4             	pushl  -0xc(%ebp)
80103801:	ff 75 f0             	pushl  -0x10(%ebp)
80103804:	68 84 56 10 80       	push   $0x80105684
80103809:	e8 23 ea ff ff       	call   80102231 <printf_>
8010380e:	83 c4 10             	add    $0x10,%esp
80103811:	90                   	nop
80103812:	c9                   	leave  
80103813:	c3                   	ret    

80103814 <kalloc>:
80103814:	55                   	push   %ebp
80103815:	89 e5                	mov    %esp,%ebp
80103817:	83 ec 10             	sub    $0x10,%esp
8010381a:	8b 45 08             	mov    0x8(%ebp),%eax
8010381d:	05 ff 0f 00 00       	add    $0xfff,%eax
80103822:	c1 e8 0c             	shr    $0xc,%eax
80103825:	89 45 f4             	mov    %eax,-0xc(%ebp)
80103828:	a1 00 c0 11 80       	mov    0x8011c000,%eax
8010382d:	89 45 fc             	mov    %eax,-0x4(%ebp)
80103830:	c7 45 f8 00 c0 11 80 	movl   $0x8011c000,-0x8(%ebp)
80103837:	eb 6b                	jmp    801038a4 <kalloc+0x90>
80103839:	8b 45 fc             	mov    -0x4(%ebp),%eax
8010383c:	8b 40 04             	mov    0x4(%eax),%eax
8010383f:	39 45 f4             	cmp    %eax,-0xc(%ebp)
80103842:	73 38                	jae    8010387c <kalloc+0x68>
80103844:	8b 45 f4             	mov    -0xc(%ebp),%eax
80103847:	c1 e0 0c             	shl    $0xc,%eax
8010384a:	89 c2                	mov    %eax,%edx
8010384c:	8b 45 fc             	mov    -0x4(%ebp),%eax
8010384f:	01 d0                	add    %edx,%eax
80103851:	89 45 f0             	mov    %eax,-0x10(%ebp)
80103854:	8b 45 fc             	mov    -0x4(%ebp),%eax
80103857:	8b 40 04             	mov    0x4(%eax),%eax
8010385a:	2b 45 f4             	sub    -0xc(%ebp),%eax
8010385d:	89 c2                	mov    %eax,%edx
8010385f:	8b 45 f0             	mov    -0x10(%ebp),%eax
80103862:	89 50 04             	mov    %edx,0x4(%eax)
80103865:	8b 45 fc             	mov    -0x4(%ebp),%eax
80103868:	8b 10                	mov    (%eax),%edx
8010386a:	8b 45 f0             	mov    -0x10(%ebp),%eax
8010386d:	89 10                	mov    %edx,(%eax)
8010386f:	8b 45 f8             	mov    -0x8(%ebp),%eax
80103872:	8b 55 f0             	mov    -0x10(%ebp),%edx
80103875:	89 10                	mov    %edx,(%eax)
80103877:	8b 45 fc             	mov    -0x4(%ebp),%eax
8010387a:	eb 33                	jmp    801038af <kalloc+0x9b>
8010387c:	8b 45 fc             	mov    -0x4(%ebp),%eax
8010387f:	8b 40 04             	mov    0x4(%eax),%eax
80103882:	39 45 f4             	cmp    %eax,-0xc(%ebp)
80103885:	75 0f                	jne    80103896 <kalloc+0x82>
80103887:	8b 45 fc             	mov    -0x4(%ebp),%eax
8010388a:	8b 10                	mov    (%eax),%edx
8010388c:	8b 45 f8             	mov    -0x8(%ebp),%eax
8010388f:	89 10                	mov    %edx,(%eax)
80103891:	8b 45 fc             	mov    -0x4(%ebp),%eax
80103894:	eb 19                	jmp    801038af <kalloc+0x9b>
80103896:	8b 45 fc             	mov    -0x4(%ebp),%eax
80103899:	89 45 f8             	mov    %eax,-0x8(%ebp)
8010389c:	8b 45 fc             	mov    -0x4(%ebp),%eax
8010389f:	8b 00                	mov    (%eax),%eax
801038a1:	89 45 fc             	mov    %eax,-0x4(%ebp)
801038a4:	83 7d fc 00          	cmpl   $0x0,-0x4(%ebp)
801038a8:	75 8f                	jne    80103839 <kalloc+0x25>
801038aa:	b8 00 00 00 00       	mov    $0x0,%eax
801038af:	c9                   	leave  
801038b0:	c3                   	ret    

801038b1 <kfree>:
801038b1:	55                   	push   %ebp
801038b2:	89 e5                	mov    %esp,%ebp
801038b4:	83 ec 28             	sub    $0x28,%esp
801038b7:	8b 45 0c             	mov    0xc(%ebp),%eax
801038ba:	05 ff 0f 00 00       	add    $0xfff,%eax
801038bf:	c1 e8 0c             	shr    $0xc,%eax
801038c2:	89 45 f4             	mov    %eax,-0xc(%ebp)
801038c5:	a1 00 c0 11 80       	mov    0x8011c000,%eax
801038ca:	89 45 f0             	mov    %eax,-0x10(%ebp)
801038cd:	8b 45 08             	mov    0x8(%ebp),%eax
801038d0:	89 45 ec             	mov    %eax,-0x14(%ebp)
801038d3:	83 7d f0 00          	cmpl   $0x0,-0x10(%ebp)
801038d7:	0f 85 40 01 00 00    	jne    80103a1d <kfree+0x16c>
801038dd:	8b 45 ec             	mov    -0x14(%ebp),%eax
801038e0:	a3 00 c0 11 80       	mov    %eax,0x8011c000
801038e5:	8b 45 ec             	mov    -0x14(%ebp),%eax
801038e8:	c7 00 00 00 00 00    	movl   $0x0,(%eax)
801038ee:	e9 2a 01 00 00       	jmp    80103a1d <kfree+0x16c>
801038f3:	8b 45 f0             	mov    -0x10(%ebp),%eax
801038f6:	3b 45 ec             	cmp    -0x14(%ebp),%eax
801038f9:	0f 83 0c 01 00 00    	jae    80103a0b <kfree+0x15a>
801038ff:	8b 45 f0             	mov    -0x10(%ebp),%eax
80103902:	8b 00                	mov    (%eax),%eax
80103904:	39 45 ec             	cmp    %eax,-0x14(%ebp)
80103907:	72 0d                	jb     80103916 <kfree+0x65>
80103909:	8b 45 f0             	mov    -0x10(%ebp),%eax
8010390c:	8b 00                	mov    (%eax),%eax
8010390e:	85 c0                	test   %eax,%eax
80103910:	0f 85 f5 00 00 00    	jne    80103a0b <kfree+0x15a>
80103916:	8b 45 f0             	mov    -0x10(%ebp),%eax
80103919:	8b 40 04             	mov    0x4(%eax),%eax
8010391c:	c1 e0 0c             	shl    $0xc,%eax
8010391f:	89 c2                	mov    %eax,%edx
80103921:	8b 45 f0             	mov    -0x10(%ebp),%eax
80103924:	01 d0                	add    %edx,%eax
80103926:	39 45 ec             	cmp    %eax,-0x14(%ebp)
80103929:	0f 94 c0             	sete   %al
8010392c:	0f b6 c0             	movzbl %al,%eax
8010392f:	89 45 e8             	mov    %eax,-0x18(%ebp)
80103932:	8b 45 f0             	mov    -0x10(%ebp),%eax
80103935:	8b 00                	mov    (%eax),%eax
80103937:	85 c0                	test   %eax,%eax
80103939:	74 1d                	je     80103958 <kfree+0xa7>
8010393b:	8b 45 f4             	mov    -0xc(%ebp),%eax
8010393e:	c1 e0 0c             	shl    $0xc,%eax
80103941:	89 c2                	mov    %eax,%edx
80103943:	8b 45 ec             	mov    -0x14(%ebp),%eax
80103946:	01 c2                	add    %eax,%edx
80103948:	8b 45 f0             	mov    -0x10(%ebp),%eax
8010394b:	8b 00                	mov    (%eax),%eax
8010394d:	39 c2                	cmp    %eax,%edx
8010394f:	75 07                	jne    80103958 <kfree+0xa7>
80103951:	b8 01 00 00 00       	mov    $0x1,%eax
80103956:	eb 05                	jmp    8010395d <kfree+0xac>
80103958:	b8 00 00 00 00       	mov    $0x0,%eax
8010395d:	89 45 e4             	mov    %eax,-0x1c(%ebp)
80103960:	83 7d e8 00          	cmpl   $0x0,-0x18(%ebp)
80103964:	74 1c                	je     80103982 <kfree+0xd1>
80103966:	83 7d e4 00          	cmpl   $0x0,-0x1c(%ebp)
8010396a:	75 16                	jne    80103982 <kfree+0xd1>
8010396c:	8b 45 f0             	mov    -0x10(%ebp),%eax
8010396f:	8b 50 04             	mov    0x4(%eax),%edx
80103972:	8b 45 f4             	mov    -0xc(%ebp),%eax
80103975:	01 c2                	add    %eax,%edx
80103977:	8b 45 f0             	mov    -0x10(%ebp),%eax
8010397a:	89 50 04             	mov    %edx,0x4(%eax)
8010397d:	e9 87 00 00 00       	jmp    80103a09 <kfree+0x158>
80103982:	83 7d e8 00          	cmpl   $0x0,-0x18(%ebp)
80103986:	75 2f                	jne    801039b7 <kfree+0x106>
80103988:	83 7d e4 00          	cmpl   $0x0,-0x1c(%ebp)
8010398c:	74 29                	je     801039b7 <kfree+0x106>
8010398e:	8b 45 f0             	mov    -0x10(%ebp),%eax
80103991:	8b 00                	mov    (%eax),%eax
80103993:	8b 10                	mov    (%eax),%edx
80103995:	8b 45 ec             	mov    -0x14(%ebp),%eax
80103998:	89 10                	mov    %edx,(%eax)
8010399a:	8b 45 f0             	mov    -0x10(%ebp),%eax
8010399d:	8b 00                	mov    (%eax),%eax
8010399f:	8b 50 04             	mov    0x4(%eax),%edx
801039a2:	8b 45 f4             	mov    -0xc(%ebp),%eax
801039a5:	01 c2                	add    %eax,%edx
801039a7:	8b 45 ec             	mov    -0x14(%ebp),%eax
801039aa:	89 50 04             	mov    %edx,0x4(%eax)
801039ad:	8b 45 f0             	mov    -0x10(%ebp),%eax
801039b0:	8b 55 ec             	mov    -0x14(%ebp),%edx
801039b3:	89 10                	mov    %edx,(%eax)
801039b5:	eb 52                	jmp    80103a09 <kfree+0x158>
801039b7:	83 7d e8 00          	cmpl   $0x0,-0x18(%ebp)
801039bb:	74 2f                	je     801039ec <kfree+0x13b>
801039bd:	83 7d e4 00          	cmpl   $0x0,-0x1c(%ebp)
801039c1:	74 29                	je     801039ec <kfree+0x13b>
801039c3:	8b 45 f0             	mov    -0x10(%ebp),%eax
801039c6:	8b 00                	mov    (%eax),%eax
801039c8:	8b 10                	mov    (%eax),%edx
801039ca:	8b 45 f0             	mov    -0x10(%ebp),%eax
801039cd:	89 10                	mov    %edx,(%eax)
801039cf:	8b 45 f0             	mov    -0x10(%ebp),%eax
801039d2:	8b 50 04             	mov    0x4(%eax),%edx
801039d5:	8b 45 f0             	mov    -0x10(%ebp),%eax
801039d8:	8b 00                	mov    (%eax),%eax
801039da:	8b 48 04             	mov    0x4(%eax),%ecx
801039dd:	8b 45 f4             	mov    -0xc(%ebp),%eax
801039e0:	01 c8                	add    %ecx,%eax
801039e2:	01 c2                	add    %eax,%edx
801039e4:	8b 45 f0             	mov    -0x10(%ebp),%eax
801039e7:	89 50 04             	mov    %edx,0x4(%eax)
801039ea:	eb 1d                	jmp    80103a09 <kfree+0x158>
801039ec:	8b 45 f0             	mov    -0x10(%ebp),%eax
801039ef:	8b 10                	mov    (%eax),%edx
801039f1:	8b 45 ec             	mov    -0x14(%ebp),%eax
801039f4:	89 10                	mov    %edx,(%eax)
801039f6:	8b 45 ec             	mov    -0x14(%ebp),%eax
801039f9:	8b 55 f4             	mov    -0xc(%ebp),%edx
801039fc:	89 50 04             	mov    %edx,0x4(%eax)
801039ff:	8b 45 f0             	mov    -0x10(%ebp),%eax
80103a02:	8b 55 ec             	mov    -0x14(%ebp),%edx
80103a05:	89 10                	mov    %edx,(%eax)
80103a07:	eb 2e                	jmp    80103a37 <kfree+0x186>
80103a09:	eb 2c                	jmp    80103a37 <kfree+0x186>
80103a0b:	8b 45 f0             	mov    -0x10(%ebp),%eax
80103a0e:	8b 55 ec             	mov    -0x14(%ebp),%edx
80103a11:	89 10                	mov    %edx,(%eax)
80103a13:	8b 45 f0             	mov    -0x10(%ebp),%eax
80103a16:	8b 10                	mov    (%eax),%edx
80103a18:	8b 45 ec             	mov    -0x14(%ebp),%eax
80103a1b:	89 10                	mov    %edx,(%eax)
80103a1d:	83 7d f0 00          	cmpl   $0x0,-0x10(%ebp)
80103a21:	0f 85 cc fe ff ff    	jne    801038f3 <kfree+0x42>
80103a27:	83 ec 0c             	sub    $0xc,%esp
80103a2a:	68 a4 56 10 80       	push   $0x801056a4
80103a2f:	e8 6d ed ff ff       	call   801027a1 <panic>
80103a34:	83 c4 10             	add    $0x10,%esp
80103a37:	c9                   	leave  
80103a38:	c3                   	ret    

80103a39 <alloc_page>:
80103a39:	55                   	push   %ebp
80103a3a:	89 e5                	mov    %esp,%ebp
80103a3c:	53                   	push   %ebx
80103a3d:	83 ec 10             	sub    $0x10,%esp
80103a40:	c7 45 f8 00 00 00 00 	movl   $0x0,-0x8(%ebp)
80103a47:	8b 45 0c             	mov    0xc(%ebp),%eax
80103a4a:	c1 e8 16             	shr    $0x16,%eax
80103a4d:	8d 14 85 00 00 00 00 	lea    0x0(,%eax,4),%edx
80103a54:	8b 45 08             	mov    0x8(%ebp),%eax
80103a57:	01 d0                	add    %edx,%eax
80103a59:	8b 00                	mov    (%eax),%eax
80103a5b:	83 e0 01             	and    $0x1,%eax
80103a5e:	85 c0                	test   %eax,%eax
80103a60:	74 27                	je     80103a89 <alloc_page+0x50>
80103a62:	8b 45 0c             	mov    0xc(%ebp),%eax
80103a65:	c1 e8 16             	shr    $0x16,%eax
80103a68:	8d 14 85 00 00 00 00 	lea    0x0(,%eax,4),%edx
80103a6f:	8b 45 08             	mov    0x8(%ebp),%eax
80103a72:	01 d0                	add    %edx,%eax
80103a74:	8b 00                	mov    (%eax),%eax
80103a76:	25 00 f0 ff ff       	and    $0xfffff000,%eax
80103a7b:	50                   	push   %eax
80103a7c:	e8 99 fc ff ff       	call   8010371a <phys2virt>
80103a81:	83 c4 04             	add    $0x4,%esp
80103a84:	89 45 f8             	mov    %eax,-0x8(%ebp)
80103a87:	eb 48                	jmp    80103ad1 <alloc_page+0x98>
80103a89:	68 00 10 00 00       	push   $0x1000
80103a8e:	e8 81 fd ff ff       	call   80103814 <kalloc>
80103a93:	83 c4 04             	add    $0x4,%esp
80103a96:	89 45 f8             	mov    %eax,-0x8(%ebp)
80103a99:	83 7d f8 00          	cmpl   $0x0,-0x8(%ebp)
80103a9d:	75 07                	jne    80103aa6 <alloc_page+0x6d>
80103a9f:	b8 00 00 00 00       	mov    $0x0,%eax
80103aa4:	eb 79                	jmp    80103b1f <alloc_page+0xe6>
80103aa6:	c7 45 f4 00 00 00 00 	movl   $0x0,-0xc(%ebp)
80103aad:	eb 19                	jmp    80103ac8 <alloc_page+0x8f>
80103aaf:	8b 45 f4             	mov    -0xc(%ebp),%eax
80103ab2:	8d 14 85 00 00 00 00 	lea    0x0(,%eax,4),%edx
80103ab9:	8b 45 f8             	mov    -0x8(%ebp),%eax
80103abc:	01 d0                	add    %edx,%eax
80103abe:	c7 00 00 00 00 00    	movl   $0x0,(%eax)
80103ac4:	83 45 f4 01          	addl   $0x1,-0xc(%ebp)
80103ac8:	81 7d f4 ff 03 00 00 	cmpl   $0x3ff,-0xc(%ebp)
80103acf:	7e de                	jle    80103aaf <alloc_page+0x76>
80103ad1:	c7 45 f0 03 00 00 00 	movl   $0x3,-0x10(%ebp)
80103ad8:	83 7d 10 00          	cmpl   $0x0,0x10(%ebp)
80103adc:	74 04                	je     80103ae2 <alloc_page+0xa9>
80103ade:	83 4d f0 04          	orl    $0x4,-0x10(%ebp)
80103ae2:	ff 75 f8             	pushl  -0x8(%ebp)
80103ae5:	e8 21 fc ff ff       	call   8010370b <virt2phys>
80103aea:	83 c4 04             	add    $0x4,%esp
80103aed:	89 c3                	mov    %eax,%ebx
80103aef:	8b 55 f0             	mov    -0x10(%ebp),%edx
80103af2:	8b 45 0c             	mov    0xc(%ebp),%eax
80103af5:	c1 e8 16             	shr    $0x16,%eax
80103af8:	8d 0c 85 00 00 00 00 	lea    0x0(,%eax,4),%ecx
80103aff:	8b 45 08             	mov    0x8(%ebp),%eax
80103b02:	01 c8                	add    %ecx,%eax
80103b04:	09 da                	or     %ebx,%edx
80103b06:	89 10                	mov    %edx,(%eax)
80103b08:	8b 45 0c             	mov    0xc(%ebp),%eax
80103b0b:	c1 e8 0c             	shr    $0xc,%eax
80103b0e:	25 ff 03 00 00       	and    $0x3ff,%eax
80103b13:	8d 14 85 00 00 00 00 	lea    0x0(,%eax,4),%edx
80103b1a:	8b 45 f8             	mov    -0x8(%ebp),%eax
80103b1d:	01 d0                	add    %edx,%eax
80103b1f:	8b 5d fc             	mov    -0x4(%ebp),%ebx
80103b22:	c9                   	leave  
80103b23:	c3                   	ret    

80103b24 <map_continous>:
80103b24:	55                   	push   %ebp
80103b25:	89 e5                	mov    %esp,%ebp
80103b27:	83 ec 10             	sub    $0x10,%esp
80103b2a:	8b 45 0c             	mov    0xc(%ebp),%eax
80103b2d:	25 00 f0 ff ff       	and    $0xfffff000,%eax
80103b32:	89 45 0c             	mov    %eax,0xc(%ebp)
80103b35:	8b 45 14             	mov    0x14(%ebp),%eax
80103b38:	25 00 f0 ff ff       	and    $0xfffff000,%eax
80103b3d:	89 45 14             	mov    %eax,0x14(%ebp)
80103b40:	8b 45 10             	mov    0x10(%ebp),%eax
80103b43:	05 ff 0f 00 00       	add    $0xfff,%eax
80103b48:	25 00 f0 ff ff       	and    $0xfffff000,%eax
80103b4d:	89 45 10             	mov    %eax,0x10(%ebp)
80103b50:	eb 49                	jmp    80103b9b <map_continous+0x77>
80103b52:	8b 45 18             	mov    0x18(%ebp),%eax
80103b55:	83 c8 04             	or     $0x4,%eax
80103b58:	50                   	push   %eax
80103b59:	ff 75 0c             	pushl  0xc(%ebp)
80103b5c:	ff 75 08             	pushl  0x8(%ebp)
80103b5f:	e8 d5 fe ff ff       	call   80103a39 <alloc_page>
80103b64:	83 c4 0c             	add    $0xc,%esp
80103b67:	89 45 fc             	mov    %eax,-0x4(%ebp)
80103b6a:	8b 45 14             	mov    0x14(%ebp),%eax
80103b6d:	83 c8 01             	or     $0x1,%eax
80103b70:	89 c2                	mov    %eax,%edx
80103b72:	8b 45 fc             	mov    -0x4(%ebp),%eax
80103b75:	89 10                	mov    %edx,(%eax)
80103b77:	8b 45 fc             	mov    -0x4(%ebp),%eax
80103b7a:	8b 10                	mov    (%eax),%edx
80103b7c:	8b 45 18             	mov    0x18(%ebp),%eax
80103b7f:	09 c2                	or     %eax,%edx
80103b81:	8b 45 fc             	mov    -0x4(%ebp),%eax
80103b84:	89 10                	mov    %edx,(%eax)
80103b86:	81 45 0c 00 10 00 00 	addl   $0x1000,0xc(%ebp)
80103b8d:	81 45 14 00 10 00 00 	addl   $0x1000,0x14(%ebp)
80103b94:	81 6d 10 00 10 00 00 	subl   $0x1000,0x10(%ebp)
80103b9b:	83 7d 10 00          	cmpl   $0x0,0x10(%ebp)
80103b9f:	75 b1                	jne    80103b52 <map_continous+0x2e>
80103ba1:	90                   	nop
80103ba2:	90                   	nop
80103ba3:	c9                   	leave  
80103ba4:	c3                   	ret    

80103ba5 <mmap_task>:
80103ba5:	55                   	push   %ebp
80103ba6:	89 e5                	mov    %esp,%ebp
80103ba8:	83 ec 18             	sub    $0x18,%esp
80103bab:	8b 45 0c             	mov    0xc(%ebp),%eax
80103bae:	25 00 f0 ff ff       	and    $0xfffff000,%eax
80103bb3:	89 45 f4             	mov    %eax,-0xc(%ebp)
80103bb6:	8b 55 0c             	mov    0xc(%ebp),%edx
80103bb9:	8b 45 14             	mov    0x14(%ebp),%eax
80103bbc:	01 d0                	add    %edx,%eax
80103bbe:	05 ff 0f 00 00       	add    $0xfff,%eax
80103bc3:	25 00 f0 ff ff       	and    $0xfffff000,%eax
80103bc8:	89 45 f0             	mov    %eax,-0x10(%ebp)
80103bcb:	83 7d 0c ff          	cmpl   $0xffffffff,0xc(%ebp)
80103bcf:	75 43                	jne    80103c14 <mmap_task+0x6f>
80103bd1:	8b 45 14             	mov    0x14(%ebp),%eax
80103bd4:	05 ff 0f 00 00       	add    $0xfff,%eax
80103bd9:	25 00 f0 ff ff       	and    $0xfffff000,%eax
80103bde:	89 45 ec             	mov    %eax,-0x14(%ebp)
80103be1:	8b 45 08             	mov    0x8(%ebp),%eax
80103be4:	83 c0 28             	add    $0x28,%eax
80103be7:	83 ec 08             	sub    $0x8,%esp
80103bea:	ff 75 ec             	pushl  -0x14(%ebp)
80103bed:	50                   	push   %eax
80103bee:	e8 af 07 00 00       	call   801043a2 <find_segment>
80103bf3:	83 c4 10             	add    $0x10,%esp
80103bf6:	89 45 f4             	mov    %eax,-0xc(%ebp)
80103bf9:	83 7d f4 ff          	cmpl   $0xffffffff,-0xc(%ebp)
80103bfd:	75 0a                	jne    80103c09 <mmap_task+0x64>
80103bff:	b8 ff ff ff ff       	mov    $0xffffffff,%eax
80103c04:	e9 e2 00 00 00       	jmp    80103ceb <mmap_task+0x146>
80103c09:	8b 55 f4             	mov    -0xc(%ebp),%edx
80103c0c:	8b 45 ec             	mov    -0x14(%ebp),%eax
80103c0f:	01 d0                	add    %edx,%eax
80103c11:	89 45 f0             	mov    %eax,-0x10(%ebp)
80103c14:	8b 45 f0             	mov    -0x10(%ebp),%eax
80103c17:	2b 45 f4             	sub    -0xc(%ebp),%eax
80103c1a:	89 45 14             	mov    %eax,0x14(%ebp)
80103c1d:	8b 45 f4             	mov    -0xc(%ebp),%eax
80103c20:	3b 45 f0             	cmp    -0x10(%ebp),%eax
80103c23:	73 09                	jae    80103c2e <mmap_task+0x89>
80103c25:	81 7d f0 00 00 00 80 	cmpl   $0x80000000,-0x10(%ebp)
80103c2c:	72 0a                	jb     80103c38 <mmap_task+0x93>
80103c2e:	b8 ff ff ff ff       	mov    $0xffffffff,%eax
80103c33:	e9 b3 00 00 00       	jmp    80103ceb <mmap_task+0x146>
80103c38:	83 7d 10 00          	cmpl   $0x0,0x10(%ebp)
80103c3c:	74 16                	je     80103c54 <mmap_task+0xaf>
80103c3e:	8b 45 10             	mov    0x10(%ebp),%eax
80103c41:	25 ff 0f 00 00       	and    $0xfff,%eax
80103c46:	85 c0                	test   %eax,%eax
80103c48:	74 39                	je     80103c83 <mmap_task+0xde>
80103c4a:	b8 ff ff ff ff       	mov    $0xffffffff,%eax
80103c4f:	e9 97 00 00 00       	jmp    80103ceb <mmap_task+0x146>
80103c54:	83 ec 0c             	sub    $0xc,%esp
80103c57:	ff 75 14             	pushl  0x14(%ebp)
80103c5a:	e8 b5 fb ff ff       	call   80103814 <kalloc>
80103c5f:	83 c4 10             	add    $0x10,%esp
80103c62:	89 45 10             	mov    %eax,0x10(%ebp)
80103c65:	83 7d 10 00          	cmpl   $0x0,0x10(%ebp)
80103c69:	75 07                	jne    80103c72 <mmap_task+0xcd>
80103c6b:	b8 ff ff ff ff       	mov    $0xffffffff,%eax
80103c70:	eb 79                	jmp    80103ceb <mmap_task+0x146>
80103c72:	83 ec 0c             	sub    $0xc,%esp
80103c75:	ff 75 10             	pushl  0x10(%ebp)
80103c78:	e8 8e fa ff ff       	call   8010370b <virt2phys>
80103c7d:	83 c4 10             	add    $0x10,%esp
80103c80:	89 45 10             	mov    %eax,0x10(%ebp)
80103c83:	c7 45 e8 00 00 00 00 	movl   $0x0,-0x18(%ebp)
80103c8a:	8b 45 08             	mov    0x8(%ebp),%eax
80103c8d:	83 c0 28             	add    $0x28,%eax
80103c90:	83 ec 04             	sub    $0x4,%esp
80103c93:	ff 75 f0             	pushl  -0x10(%ebp)
80103c96:	ff 75 f4             	pushl  -0xc(%ebp)
80103c99:	50                   	push   %eax
80103c9a:	e8 91 05 00 00       	call   80104230 <insert_segment>
80103c9f:	83 c4 10             	add    $0x10,%esp
80103ca2:	89 45 e8             	mov    %eax,-0x18(%ebp)
80103ca5:	83 7d e8 00          	cmpl   $0x0,-0x18(%ebp)
80103ca9:	74 07                	je     80103cb2 <mmap_task+0x10d>
80103cab:	b8 ff ff ff ff       	mov    $0xffffffff,%eax
80103cb0:	eb 39                	jmp    80103ceb <mmap_task+0x146>
80103cb2:	8b 45 18             	mov    0x18(%ebp),%eax
80103cb5:	83 e0 06             	and    $0x6,%eax
80103cb8:	89 c2                	mov    %eax,%edx
80103cba:	8b 45 08             	mov    0x8(%ebp),%eax
80103cbd:	8b 40 2c             	mov    0x2c(%eax),%eax
80103cc0:	83 ec 0c             	sub    $0xc,%esp
80103cc3:	52                   	push   %edx
80103cc4:	ff 75 10             	pushl  0x10(%ebp)
80103cc7:	ff 75 14             	pushl  0x14(%ebp)
80103cca:	ff 75 f4             	pushl  -0xc(%ebp)
80103ccd:	50                   	push   %eax
80103cce:	e8 51 fe ff ff       	call   80103b24 <map_continous>
80103cd3:	83 c4 20             	add    $0x20,%esp
80103cd6:	8b 45 08             	mov    0x8(%ebp),%eax
80103cd9:	83 c0 28             	add    $0x28,%eax
80103cdc:	83 ec 0c             	sub    $0xc,%esp
80103cdf:	50                   	push   %eax
80103ce0:	e8 5e 06 00 00       	call   80104343 <dump_segment_list>
80103ce5:	83 c4 10             	add    $0x10,%esp
80103ce8:	8b 45 f4             	mov    -0xc(%ebp),%eax
80103ceb:	c9                   	leave  
80103cec:	c3                   	ret    

80103ced <init_kernel_paging>:
80103ced:	55                   	push   %ebp
80103cee:	89 e5                	mov    %esp,%ebp
80103cf0:	83 ec 18             	sub    $0x18,%esp
80103cf3:	68 00 10 00 00       	push   $0x1000
80103cf8:	e8 17 fb ff ff       	call   80103814 <kalloc>
80103cfd:	83 c4 04             	add    $0x4,%esp
80103d00:	a3 08 c0 11 80       	mov    %eax,0x8011c008
80103d05:	a1 08 c0 11 80       	mov    0x8011c008,%eax
80103d0a:	83 ec 04             	sub    $0x4,%esp
80103d0d:	68 00 10 00 00       	push   $0x1000
80103d12:	6a 00                	push   $0x0
80103d14:	50                   	push   %eax
80103d15:	e8 3c ef ff ff       	call   80102c56 <memset>
80103d1a:	83 c4 10             	add    $0x10,%esp
80103d1d:	c7 45 f4 00 00 00 80 	movl   $0x80000000,-0xc(%ebp)
80103d24:	eb 2f                	jmp    80103d55 <init_kernel_paging+0x68>
80103d26:	83 ec 0c             	sub    $0xc,%esp
80103d29:	ff 75 f4             	pushl  -0xc(%ebp)
80103d2c:	e8 da f9 ff ff       	call   8010370b <virt2phys>
80103d31:	83 c4 10             	add    $0x10,%esp
80103d34:	89 c1                	mov    %eax,%ecx
80103d36:	8b 15 08 c0 11 80    	mov    0x8011c008,%edx
80103d3c:	8b 45 f4             	mov    -0xc(%ebp),%eax
80103d3f:	c1 e8 16             	shr    $0x16,%eax
80103d42:	c1 e0 02             	shl    $0x2,%eax
80103d45:	01 d0                	add    %edx,%eax
80103d47:	80 c9 83             	or     $0x83,%cl
80103d4a:	89 ca                	mov    %ecx,%edx
80103d4c:	89 10                	mov    %edx,(%eax)
80103d4e:	81 45 f4 00 00 40 00 	addl   $0x400000,-0xc(%ebp)
80103d55:	a1 04 c0 11 80       	mov    0x8011c004,%eax
80103d5a:	2d 00 00 40 00       	sub    $0x400000,%eax
80103d5f:	39 45 f4             	cmp    %eax,-0xc(%ebp)
80103d62:	72 c2                	jb     80103d26 <init_kernel_paging+0x39>
80103d64:	a1 08 c0 11 80       	mov    0x8011c008,%eax
80103d69:	83 ec 0c             	sub    $0xc,%esp
80103d6c:	50                   	push   %eax
80103d6d:	e8 99 f9 ff ff       	call   8010370b <virt2phys>
80103d72:	83 c4 10             	add    $0x10,%esp
80103d75:	83 ec 0c             	sub    $0xc,%esp
80103d78:	50                   	push   %eax
80103d79:	e8 48 f8 ff ff       	call   801035c6 <load_cr3>
80103d7e:	83 c4 10             	add    $0x10,%esp
80103d81:	90                   	nop
80103d82:	c9                   	leave  
80103d83:	c3                   	ret    

80103d84 <identity_map>:
80103d84:	55                   	push   %ebp
80103d85:	89 e5                	mov    %esp,%ebp
80103d87:	a1 08 c0 11 80       	mov    0x8011c008,%eax
80103d8c:	6a 02                	push   $0x2
80103d8e:	ff 75 08             	pushl  0x8(%ebp)
80103d91:	ff 75 0c             	pushl  0xc(%ebp)
80103d94:	ff 75 08             	pushl  0x8(%ebp)
80103d97:	50                   	push   %eax
80103d98:	e8 87 fd ff ff       	call   80103b24 <map_continous>
80103d9d:	83 c4 14             	add    $0x14,%esp
80103da0:	90                   	nop
80103da1:	c9                   	leave  
80103da2:	c3                   	ret    

80103da3 <virt2phys_from_pgdir>:
80103da3:	55                   	push   %ebp
80103da4:	89 e5                	mov    %esp,%ebp
80103da6:	83 ec 20             	sub    $0x20,%esp
80103da9:	8b 45 0c             	mov    0xc(%ebp),%eax
80103dac:	c1 e8 16             	shr    $0x16,%eax
80103daf:	89 45 fc             	mov    %eax,-0x4(%ebp)
80103db2:	8b 45 0c             	mov    0xc(%ebp),%eax
80103db5:	c1 e8 0c             	shr    $0xc,%eax
80103db8:	25 ff 03 00 00       	and    $0x3ff,%eax
80103dbd:	89 45 f8             	mov    %eax,-0x8(%ebp)
80103dc0:	8b 45 fc             	mov    -0x4(%ebp),%eax
80103dc3:	8d 14 85 00 00 00 00 	lea    0x0(,%eax,4),%edx
80103dca:	8b 45 08             	mov    0x8(%ebp),%eax
80103dcd:	01 d0                	add    %edx,%eax
80103dcf:	8b 00                	mov    (%eax),%eax
80103dd1:	25 80 00 00 00       	and    $0x80,%eax
80103dd6:	85 c0                	test   %eax,%eax
80103dd8:	74 2e                	je     80103e08 <virt2phys_from_pgdir+0x65>
80103dda:	8b 45 fc             	mov    -0x4(%ebp),%eax
80103ddd:	8d 14 85 00 00 00 00 	lea    0x0(,%eax,4),%edx
80103de4:	8b 45 08             	mov    0x8(%ebp),%eax
80103de7:	01 d0                	add    %edx,%eax
80103de9:	8b 00                	mov    (%eax),%eax
80103deb:	25 00 f0 ff ff       	and    $0xfffff000,%eax
80103df0:	89 45 f0             	mov    %eax,-0x10(%ebp)
80103df3:	8b 45 0c             	mov    0xc(%ebp),%eax
80103df6:	25 ff ff 3f 00       	and    $0x3fffff,%eax
80103dfb:	89 45 ec             	mov    %eax,-0x14(%ebp)
80103dfe:	8b 55 f0             	mov    -0x10(%ebp),%edx
80103e01:	8b 45 ec             	mov    -0x14(%ebp),%eax
80103e04:	01 d0                	add    %edx,%eax
80103e06:	eb 38                	jmp    80103e40 <virt2phys_from_pgdir+0x9d>
80103e08:	8b 45 fc             	mov    -0x4(%ebp),%eax
80103e0b:	8d 14 85 00 00 00 00 	lea    0x0(,%eax,4),%edx
80103e12:	8b 45 08             	mov    0x8(%ebp),%eax
80103e15:	01 d0                	add    %edx,%eax
80103e17:	8b 00                	mov    (%eax),%eax
80103e19:	25 00 f0 ff ff       	and    $0xfffff000,%eax
80103e1e:	50                   	push   %eax
80103e1f:	e8 f6 f8 ff ff       	call   8010371a <phys2virt>
80103e24:	83 c4 04             	add    $0x4,%esp
80103e27:	89 45 f4             	mov    %eax,-0xc(%ebp)
80103e2a:	8b 45 f8             	mov    -0x8(%ebp),%eax
80103e2d:	8d 14 85 00 00 00 00 	lea    0x0(,%eax,4),%edx
80103e34:	8b 45 f4             	mov    -0xc(%ebp),%eax
80103e37:	01 d0                	add    %edx,%eax
80103e39:	8b 00                	mov    (%eax),%eax
80103e3b:	25 00 f0 ff ff       	and    $0xfffff000,%eax
80103e40:	c9                   	leave  
80103e41:	c3                   	ret    

80103e42 <flags_from_pgdir>:
80103e42:	55                   	push   %ebp
80103e43:	89 e5                	mov    %esp,%ebp
80103e45:	83 ec 10             	sub    $0x10,%esp
80103e48:	8b 45 0c             	mov    0xc(%ebp),%eax
80103e4b:	c1 e8 16             	shr    $0x16,%eax
80103e4e:	89 45 fc             	mov    %eax,-0x4(%ebp)
80103e51:	8b 45 0c             	mov    0xc(%ebp),%eax
80103e54:	c1 e8 0c             	shr    $0xc,%eax
80103e57:	25 ff 03 00 00       	and    $0x3ff,%eax
80103e5c:	89 45 f8             	mov    %eax,-0x8(%ebp)
80103e5f:	8b 45 fc             	mov    -0x4(%ebp),%eax
80103e62:	8d 14 85 00 00 00 00 	lea    0x0(,%eax,4),%edx
80103e69:	8b 45 08             	mov    0x8(%ebp),%eax
80103e6c:	01 d0                	add    %edx,%eax
80103e6e:	8b 00                	mov    (%eax),%eax
80103e70:	25 00 f0 ff ff       	and    $0xfffff000,%eax
80103e75:	50                   	push   %eax
80103e76:	e8 9f f8 ff ff       	call   8010371a <phys2virt>
80103e7b:	83 c4 04             	add    $0x4,%esp
80103e7e:	89 45 f4             	mov    %eax,-0xc(%ebp)
80103e81:	8b 45 f8             	mov    -0x8(%ebp),%eax
80103e84:	8d 14 85 00 00 00 00 	lea    0x0(,%eax,4),%edx
80103e8b:	8b 45 f4             	mov    -0xc(%ebp),%eax
80103e8e:	01 d0                	add    %edx,%eax
80103e90:	8b 00                	mov    (%eax),%eax
80103e92:	25 ff 0f 00 00       	and    $0xfff,%eax
80103e97:	c9                   	leave  
80103e98:	c3                   	ret    

80103e99 <free_mapping>:
80103e99:	55                   	push   %ebp
80103e9a:	89 e5                	mov    %esp,%ebp
80103e9c:	83 ec 18             	sub    $0x18,%esp
80103e9f:	8b 45 0c             	mov    0xc(%ebp),%eax
80103ea2:	8b 00                	mov    (%eax),%eax
80103ea4:	89 45 f4             	mov    %eax,-0xc(%ebp)
80103ea7:	eb 49                	jmp    80103ef2 <free_mapping+0x59>
80103ea9:	8b 45 f4             	mov    -0xc(%ebp),%eax
80103eac:	8b 00                	mov    (%eax),%eax
80103eae:	50                   	push   %eax
80103eaf:	ff 75 08             	pushl  0x8(%ebp)
80103eb2:	e8 ec fe ff ff       	call   80103da3 <virt2phys_from_pgdir>
80103eb7:	83 c4 08             	add    $0x8,%esp
80103eba:	89 45 ec             	mov    %eax,-0x14(%ebp)
80103ebd:	8b 45 f4             	mov    -0xc(%ebp),%eax
80103ec0:	8b 50 04             	mov    0x4(%eax),%edx
80103ec3:	8b 45 f4             	mov    -0xc(%ebp),%eax
80103ec6:	8b 08                	mov    (%eax),%ecx
80103ec8:	89 d0                	mov    %edx,%eax
80103eca:	29 c8                	sub    %ecx,%eax
80103ecc:	89 45 e8             	mov    %eax,-0x18(%ebp)
80103ecf:	ff 75 ec             	pushl  -0x14(%ebp)
80103ed2:	e8 43 f8 ff ff       	call   8010371a <phys2virt>
80103ed7:	83 c4 04             	add    $0x4,%esp
80103eda:	83 ec 08             	sub    $0x8,%esp
80103edd:	ff 75 e8             	pushl  -0x18(%ebp)
80103ee0:	50                   	push   %eax
80103ee1:	e8 cb f9 ff ff       	call   801038b1 <kfree>
80103ee6:	83 c4 10             	add    $0x10,%esp
80103ee9:	8b 45 f4             	mov    -0xc(%ebp),%eax
80103eec:	8b 40 08             	mov    0x8(%eax),%eax
80103eef:	89 45 f4             	mov    %eax,-0xc(%ebp)
80103ef2:	83 7d f4 00          	cmpl   $0x0,-0xc(%ebp)
80103ef6:	75 b1                	jne    80103ea9 <free_mapping+0x10>
80103ef8:	c7 45 f0 00 00 00 00 	movl   $0x0,-0x10(%ebp)
80103eff:	eb 4a                	jmp    80103f4b <free_mapping+0xb2>
80103f01:	8b 45 f0             	mov    -0x10(%ebp),%eax
80103f04:	8d 14 85 00 00 00 00 	lea    0x0(,%eax,4),%edx
80103f0b:	8b 45 08             	mov    0x8(%ebp),%eax
80103f0e:	01 d0                	add    %edx,%eax
80103f10:	8b 00                	mov    (%eax),%eax
80103f12:	83 e0 01             	and    $0x1,%eax
80103f15:	85 c0                	test   %eax,%eax
80103f17:	74 2e                	je     80103f47 <free_mapping+0xae>
80103f19:	8b 45 f0             	mov    -0x10(%ebp),%eax
80103f1c:	8d 14 85 00 00 00 00 	lea    0x0(,%eax,4),%edx
80103f23:	8b 45 08             	mov    0x8(%ebp),%eax
80103f26:	01 d0                	add    %edx,%eax
80103f28:	8b 00                	mov    (%eax),%eax
80103f2a:	83 ec 0c             	sub    $0xc,%esp
80103f2d:	50                   	push   %eax
80103f2e:	e8 e7 f7 ff ff       	call   8010371a <phys2virt>
80103f33:	83 c4 10             	add    $0x10,%esp
80103f36:	83 ec 08             	sub    $0x8,%esp
80103f39:	68 00 10 00 00       	push   $0x1000
80103f3e:	50                   	push   %eax
80103f3f:	e8 6d f9 ff ff       	call   801038b1 <kfree>
80103f44:	83 c4 10             	add    $0x10,%esp
80103f47:	83 45 f0 01          	addl   $0x1,-0x10(%ebp)
80103f4b:	81 7d f0 ff 01 00 00 	cmpl   $0x1ff,-0x10(%ebp)
80103f52:	76 ad                	jbe    80103f01 <free_mapping+0x68>
80103f54:	90                   	nop
80103f55:	90                   	nop
80103f56:	c9                   	leave  
80103f57:	c3                   	ret    

80103f58 <is_userspace>:
80103f58:	55                   	push   %ebp
80103f59:	89 e5                	mov    %esp,%ebp
80103f5b:	8b 45 08             	mov    0x8(%ebp),%eax
80103f5e:	8b 40 2c             	mov    0x2c(%eax),%eax
80103f61:	83 e0 03             	and    $0x3,%eax
80103f64:	83 f8 03             	cmp    $0x3,%eax
80103f67:	0f 94 c0             	sete   %al
80103f6a:	0f b6 c0             	movzbl %al,%eax
80103f6d:	5d                   	pop    %ebp
80103f6e:	c3                   	ret    

80103f6f <cli>:
80103f6f:	55                   	push   %ebp
80103f70:	89 e5                	mov    %esp,%ebp
80103f72:	fa                   	cli    
80103f73:	90                   	nop
80103f74:	5d                   	pop    %ebp
80103f75:	c3                   	ret    

80103f76 <syscall_sleep>:
80103f76:	55                   	push   %ebp
80103f77:	89 e5                	mov    %esp,%ebp
80103f79:	83 ec 18             	sub    $0x18,%esp
80103f7c:	8b 45 08             	mov    0x8(%ebp),%eax
80103f7f:	8b 40 14             	mov    0x14(%eax),%eax
80103f82:	89 45 f4             	mov    %eax,-0xc(%ebp)
80103f85:	83 7d f4 00          	cmpl   $0x0,-0xc(%ebp)
80103f89:	7f 07                	jg     80103f92 <syscall_sleep+0x1c>
80103f8b:	b8 fc ff ff ff       	mov    $0xfffffffc,%eax
80103f90:	eb 2f                	jmp    80103fc1 <syscall_sleep+0x4b>
80103f92:	a1 50 b8 10 80       	mov    0x8010b850,%eax
80103f97:	85 c0                	test   %eax,%eax
80103f99:	74 05                	je     80103fa0 <syscall_sleep+0x2a>
80103f9b:	e8 cf ff ff ff       	call   80103f6f <cli>
80103fa0:	a1 20 c0 11 80       	mov    0x8011c020,%eax
80103fa5:	8b 55 f4             	mov    -0xc(%ebp),%edx
80103fa8:	89 50 30             	mov    %edx,0x30(%eax)
80103fab:	a1 20 c0 11 80       	mov    0x8011c020,%eax
80103fb0:	c7 40 04 02 00 00 00 	movl   $0x2,0x4(%eax)
80103fb7:	e8 dd 0d 00 00       	call   80104d99 <reschedule>
80103fbc:	b8 00 00 00 00       	mov    $0x0,%eax
80103fc1:	c9                   	leave  
80103fc2:	c3                   	ret    

80103fc3 <syscall_print>:
80103fc3:	55                   	push   %ebp
80103fc4:	89 e5                	mov    %esp,%ebp
80103fc6:	83 ec 08             	sub    $0x8,%esp
80103fc9:	a1 50 b8 10 80       	mov    0x8010b850,%eax
80103fce:	85 c0                	test   %eax,%eax
80103fd0:	74 05                	je     80103fd7 <syscall_print+0x14>
80103fd2:	e8 98 ff ff ff       	call   80103f6f <cli>
80103fd7:	8b 45 08             	mov    0x8(%ebp),%eax
80103fda:	8b 40 34             	mov    0x34(%eax),%eax
80103fdd:	83 ec 08             	sub    $0x8,%esp
80103fe0:	50                   	push   %eax
80103fe1:	68 c8 56 10 80       	push   $0x801056c8
80103fe6:	e8 46 e2 ff ff       	call   80102231 <printf_>
80103feb:	83 c4 10             	add    $0x10,%esp
80103fee:	8b 45 08             	mov    0x8(%ebp),%eax
80103ff1:	8b 40 14             	mov    0x14(%eax),%eax
80103ff4:	83 ec 08             	sub    $0x8,%esp
80103ff7:	50                   	push   %eax
80103ff8:	68 d6 56 10 80       	push   $0x801056d6
80103ffd:	e8 2f e2 ff ff       	call   80102231 <printf_>
80104002:	83 c4 10             	add    $0x10,%esp
80104005:	b8 00 00 00 00       	mov    $0x0,%eax
8010400a:	c9                   	leave  
8010400b:	c3                   	ret    

8010400c <syscall_mmap>:
8010400c:	55                   	push   %ebp
8010400d:	89 e5                	mov    %esp,%ebp
8010400f:	83 ec 18             	sub    $0x18,%esp
80104012:	8b 45 08             	mov    0x8(%ebp),%eax
80104015:	8b 40 14             	mov    0x14(%eax),%eax
80104018:	89 45 f4             	mov    %eax,-0xc(%ebp)
8010401b:	8b 45 08             	mov    0x8(%ebp),%eax
8010401e:	8b 40 10             	mov    0x10(%eax),%eax
80104021:	89 45 f0             	mov    %eax,-0x10(%ebp)
80104024:	8b 45 08             	mov    0x8(%ebp),%eax
80104027:	8b 40 0c             	mov    0xc(%eax),%eax
8010402a:	83 e0 02             	and    $0x2,%eax
8010402d:	89 45 ec             	mov    %eax,-0x14(%ebp)
80104030:	a1 50 b8 10 80       	mov    0x8010b850,%eax
80104035:	85 c0                	test   %eax,%eax
80104037:	74 05                	je     8010403e <syscall_mmap+0x32>
80104039:	e8 31 ff ff ff       	call   80103f6f <cli>
8010403e:	8b 45 ec             	mov    -0x14(%ebp),%eax
80104041:	83 c8 04             	or     $0x4,%eax
80104044:	89 c2                	mov    %eax,%edx
80104046:	a1 20 c0 11 80       	mov    0x8011c020,%eax
8010404b:	83 ec 0c             	sub    $0xc,%esp
8010404e:	52                   	push   %edx
8010404f:	ff 75 f0             	pushl  -0x10(%ebp)
80104052:	6a 00                	push   $0x0
80104054:	ff 75 f4             	pushl  -0xc(%ebp)
80104057:	50                   	push   %eax
80104058:	e8 48 fb ff ff       	call   80103ba5 <mmap_task>
8010405d:	83 c4 20             	add    $0x20,%esp
80104060:	89 45 e8             	mov    %eax,-0x18(%ebp)
80104063:	a1 20 c0 11 80       	mov    0x8011c020,%eax
80104068:	83 c0 28             	add    $0x28,%eax
8010406b:	83 ec 0c             	sub    $0xc,%esp
8010406e:	50                   	push   %eax
8010406f:	e8 cf 02 00 00       	call   80104343 <dump_segment_list>
80104074:	83 c4 10             	add    $0x10,%esp
80104077:	8b 45 e8             	mov    -0x18(%ebp),%eax
8010407a:	c9                   	leave  
8010407b:	c3                   	ret    

8010407c <syscall_fork>:
8010407c:	55                   	push   %ebp
8010407d:	89 e5                	mov    %esp,%ebp
8010407f:	83 ec 18             	sub    $0x18,%esp
80104082:	a1 50 b8 10 80       	mov    0x8010b850,%eax
80104087:	85 c0                	test   %eax,%eax
80104089:	74 05                	je     80104090 <syscall_fork+0x14>
8010408b:	e8 df fe ff ff       	call   80103f6f <cli>
80104090:	a1 20 c0 11 80       	mov    0x8011c020,%eax
80104095:	c7 40 04 03 00 00 00 	movl   $0x3,0x4(%eax)
8010409c:	e8 f8 0c 00 00       	call   80104d99 <reschedule>
801040a1:	a1 20 c0 11 80       	mov    0x8011c020,%eax
801040a6:	8b 40 34             	mov    0x34(%eax),%eax
801040a9:	83 f8 fe             	cmp    $0xfffffffe,%eax
801040ac:	75 13                	jne    801040c1 <syscall_fork+0x45>
801040ae:	a1 20 c0 11 80       	mov    0x8011c020,%eax
801040b3:	c7 40 34 ff ff ff ff 	movl   $0xffffffff,0x34(%eax)
801040ba:	b8 ff ff ff ff       	mov    $0xffffffff,%eax
801040bf:	eb 2e                	jmp    801040ef <syscall_fork+0x73>
801040c1:	a1 20 c0 11 80       	mov    0x8011c020,%eax
801040c6:	8b 40 34             	mov    0x34(%eax),%eax
801040c9:	83 f8 ff             	cmp    $0xffffffff,%eax
801040cc:	74 1c                	je     801040ea <syscall_fork+0x6e>
801040ce:	a1 20 c0 11 80       	mov    0x8011c020,%eax
801040d3:	8b 40 34             	mov    0x34(%eax),%eax
801040d6:	89 45 f4             	mov    %eax,-0xc(%ebp)
801040d9:	a1 20 c0 11 80       	mov    0x8011c020,%eax
801040de:	c7 40 34 ff ff ff ff 	movl   $0xffffffff,0x34(%eax)
801040e5:	8b 45 f4             	mov    -0xc(%ebp),%eax
801040e8:	eb 05                	jmp    801040ef <syscall_fork+0x73>
801040ea:	b8 00 00 00 00       	mov    $0x0,%eax
801040ef:	c9                   	leave  
801040f0:	c3                   	ret    

801040f1 <syscall_wait>:
801040f1:	55                   	push   %ebp
801040f2:	89 e5                	mov    %esp,%ebp
801040f4:	83 ec 18             	sub    $0x18,%esp
801040f7:	8b 45 08             	mov    0x8(%ebp),%eax
801040fa:	8b 40 14             	mov    0x14(%eax),%eax
801040fd:	89 45 f4             	mov    %eax,-0xc(%ebp)
80104100:	a1 50 b8 10 80       	mov    0x8010b850,%eax
80104105:	85 c0                	test   %eax,%eax
80104107:	74 05                	je     8010410e <syscall_wait+0x1d>
80104109:	e8 61 fe ff ff       	call   80103f6f <cli>
8010410e:	a1 20 c0 11 80       	mov    0x8011c020,%eax
80104113:	c7 40 04 04 00 00 00 	movl   $0x4,0x4(%eax)
8010411a:	e8 7a 0c 00 00       	call   80104d99 <reschedule>
8010411f:	8b 45 f4             	mov    -0xc(%ebp),%eax
80104122:	c7 00 2a 00 00 00    	movl   $0x2a,(%eax)
80104128:	a1 20 c0 11 80       	mov    0x8011c020,%eax
8010412d:	8b 40 40             	mov    0x40(%eax),%eax
80104130:	c9                   	leave  
80104131:	c3                   	ret    

80104132 <syscall_exit>:
80104132:	55                   	push   %ebp
80104133:	89 e5                	mov    %esp,%ebp
80104135:	83 ec 18             	sub    $0x18,%esp
80104138:	8b 45 08             	mov    0x8(%ebp),%eax
8010413b:	8b 40 14             	mov    0x14(%eax),%eax
8010413e:	89 45 f4             	mov    %eax,-0xc(%ebp)
80104141:	a1 50 b8 10 80       	mov    0x8010b850,%eax
80104146:	85 c0                	test   %eax,%eax
80104148:	74 05                	je     8010414f <syscall_exit+0x1d>
8010414a:	e8 20 fe ff ff       	call   80103f6f <cli>
8010414f:	a1 20 c0 11 80       	mov    0x8011c020,%eax
80104154:	c7 40 04 05 00 00 00 	movl   $0x5,0x4(%eax)
8010415b:	a1 20 c0 11 80       	mov    0x8011c020,%eax
80104160:	8b 55 f4             	mov    -0xc(%ebp),%edx
80104163:	89 50 44             	mov    %edx,0x44(%eax)
80104166:	e8 2e 0c 00 00       	call   80104d99 <reschedule>
8010416b:	83 ec 0c             	sub    $0xc,%esp
8010416e:	68 dc 56 10 80       	push   $0x801056dc
80104173:	e8 29 e6 ff ff       	call   801027a1 <panic>
80104178:	83 c4 10             	add    $0x10,%esp
8010417b:	b8 00 00 00 00       	mov    $0x0,%eax
80104180:	c9                   	leave  
80104181:	c3                   	ret    

80104182 <syscall_irq>:
80104182:	55                   	push   %ebp
80104183:	89 e5                	mov    %esp,%ebp
80104185:	83 ec 08             	sub    $0x8,%esp
80104188:	ff 75 08             	pushl  0x8(%ebp)
8010418b:	e8 c8 fd ff ff       	call   80103f58 <is_userspace>
80104190:	83 c4 04             	add    $0x4,%esp
80104193:	85 c0                	test   %eax,%eax
80104195:	75 10                	jne    801041a7 <syscall_irq+0x25>
80104197:	83 ec 0c             	sub    $0xc,%esp
8010419a:	68 00 57 10 80       	push   $0x80105700
8010419f:	e8 fd e5 ff ff       	call   801027a1 <panic>
801041a4:	83 c4 10             	add    $0x10,%esp
801041a7:	a1 20 c0 11 80       	mov    0x8011c020,%eax
801041ac:	85 c0                	test   %eax,%eax
801041ae:	75 10                	jne    801041c0 <syscall_irq+0x3e>
801041b0:	83 ec 0c             	sub    $0xc,%esp
801041b3:	68 24 57 10 80       	push   $0x80105724
801041b8:	e8 e4 e5 ff ff       	call   801027a1 <panic>
801041bd:	83 c4 10             	add    $0x10,%esp
801041c0:	8b 45 08             	mov    0x8(%ebp),%eax
801041c3:	8b 40 18             	mov    0x18(%eax),%eax
801041c6:	83 f8 05             	cmp    $0x5,%eax
801041c9:	76 0c                	jbe    801041d7 <syscall_irq+0x55>
801041cb:	8b 45 08             	mov    0x8(%ebp),%eax
801041ce:	c7 40 18 ff ff ff ff 	movl   $0xffffffff,0x18(%eax)
801041d5:	eb 1e                	jmp    801041f5 <syscall_irq+0x73>
801041d7:	8b 45 08             	mov    0x8(%ebp),%eax
801041da:	8b 40 18             	mov    0x18(%eax),%eax
801041dd:	8b 04 85 48 65 10 80 	mov    -0x7fef9ab8(,%eax,4),%eax
801041e4:	83 ec 0c             	sub    $0xc,%esp
801041e7:	ff 75 08             	pushl  0x8(%ebp)
801041ea:	ff d0                	call   *%eax
801041ec:	83 c4 10             	add    $0x10,%esp
801041ef:	8b 55 08             	mov    0x8(%ebp),%edx
801041f2:	89 42 18             	mov    %eax,0x18(%edx)
801041f5:	c9                   	leave  
801041f6:	c3                   	ret    

801041f7 <cli>:
801041f7:	55                   	push   %ebp
801041f8:	89 e5                	mov    %esp,%ebp
801041fa:	fa                   	cli    
801041fb:	90                   	nop
801041fc:	5d                   	pop    %ebp
801041fd:	c3                   	ret    

801041fe <sti>:
801041fe:	55                   	push   %ebp
801041ff:	89 e5                	mov    %esp,%ebp
80104201:	fb                   	sti    
80104202:	90                   	nop
80104203:	5d                   	pop    %ebp
80104204:	c3                   	ret    

80104205 <hlt>:
80104205:	55                   	push   %ebp
80104206:	89 e5                	mov    %esp,%ebp
80104208:	f4                   	hlt    
80104209:	90                   	nop
8010420a:	5d                   	pop    %ebp
8010420b:	c3                   	ret    

8010420c <read_cr3>:
8010420c:	55                   	push   %ebp
8010420d:	89 e5                	mov    %esp,%ebp
8010420f:	83 ec 10             	sub    $0x10,%esp
80104212:	c7 45 fc 00 00 00 00 	movl   $0x0,-0x4(%ebp)
80104219:	0f 20 d8             	mov    %cr3,%eax
8010421c:	89 45 fc             	mov    %eax,-0x4(%ebp)
8010421f:	8b 45 fc             	mov    -0x4(%ebp),%eax
80104222:	c9                   	leave  
80104223:	c3                   	ret    

80104224 <load_cr3>:
80104224:	55                   	push   %ebp
80104225:	89 e5                	mov    %esp,%ebp
80104227:	8b 45 08             	mov    0x8(%ebp),%eax
8010422a:	0f 22 d8             	mov    %eax,%cr3
8010422d:	90                   	nop
8010422e:	5d                   	pop    %ebp
8010422f:	c3                   	ret    

80104230 <insert_segment>:
80104230:	55                   	push   %ebp
80104231:	89 e5                	mov    %esp,%ebp
80104233:	83 ec 18             	sub    $0x18,%esp
80104236:	8b 45 0c             	mov    0xc(%ebp),%eax
80104239:	3b 45 10             	cmp    0x10(%ebp),%eax
8010423c:	72 10                	jb     8010424e <insert_segment+0x1e>
8010423e:	83 ec 0c             	sub    $0xc,%esp
80104241:	68 48 57 10 80       	push   $0x80105748
80104246:	e8 56 e5 ff ff       	call   801027a1 <panic>
8010424b:	83 c4 10             	add    $0x10,%esp
8010424e:	c7 45 f4 00 00 00 00 	movl   $0x0,-0xc(%ebp)
80104255:	8b 45 08             	mov    0x8(%ebp),%eax
80104258:	8b 00                	mov    (%eax),%eax
8010425a:	89 45 f0             	mov    %eax,-0x10(%ebp)
8010425d:	eb 4a                	jmp    801042a9 <insert_segment+0x79>
8010425f:	8b 45 f0             	mov    -0x10(%ebp),%eax
80104262:	8b 00                	mov    (%eax),%eax
80104264:	39 45 0c             	cmp    %eax,0xc(%ebp)
80104267:	72 0b                	jb     80104274 <insert_segment+0x44>
80104269:	8b 45 f0             	mov    -0x10(%ebp),%eax
8010426c:	8b 40 04             	mov    0x4(%eax),%eax
8010426f:	39 45 0c             	cmp    %eax,0xc(%ebp)
80104272:	72 15                	jb     80104289 <insert_segment+0x59>
80104274:	8b 45 f0             	mov    -0x10(%ebp),%eax
80104277:	8b 00                	mov    (%eax),%eax
80104279:	39 45 10             	cmp    %eax,0x10(%ebp)
8010427c:	72 12                	jb     80104290 <insert_segment+0x60>
8010427e:	8b 45 f0             	mov    -0x10(%ebp),%eax
80104281:	8b 40 04             	mov    0x4(%eax),%eax
80104284:	39 45 10             	cmp    %eax,0x10(%ebp)
80104287:	73 07                	jae    80104290 <insert_segment+0x60>
80104289:	b8 04 00 00 00       	mov    $0x4,%eax
8010428e:	eb 6d                	jmp    801042fd <insert_segment+0xcd>
80104290:	8b 45 f0             	mov    -0x10(%ebp),%eax
80104293:	8b 00                	mov    (%eax),%eax
80104295:	39 45 10             	cmp    %eax,0x10(%ebp)
80104298:	76 17                	jbe    801042b1 <insert_segment+0x81>
8010429a:	8b 45 f0             	mov    -0x10(%ebp),%eax
8010429d:	89 45 f4             	mov    %eax,-0xc(%ebp)
801042a0:	8b 45 f0             	mov    -0x10(%ebp),%eax
801042a3:	8b 40 08             	mov    0x8(%eax),%eax
801042a6:	89 45 f0             	mov    %eax,-0x10(%ebp)
801042a9:	83 7d f0 00          	cmpl   $0x0,-0x10(%ebp)
801042ad:	75 b0                	jne    8010425f <insert_segment+0x2f>
801042af:	eb 01                	jmp    801042b2 <insert_segment+0x82>
801042b1:	90                   	nop
801042b2:	83 ec 0c             	sub    $0xc,%esp
801042b5:	68 00 10 00 00       	push   $0x1000
801042ba:	e8 55 f5 ff ff       	call   80103814 <kalloc>
801042bf:	83 c4 10             	add    $0x10,%esp
801042c2:	89 45 ec             	mov    %eax,-0x14(%ebp)
801042c5:	8b 45 ec             	mov    -0x14(%ebp),%eax
801042c8:	8b 55 0c             	mov    0xc(%ebp),%edx
801042cb:	89 10                	mov    %edx,(%eax)
801042cd:	8b 45 ec             	mov    -0x14(%ebp),%eax
801042d0:	8b 55 10             	mov    0x10(%ebp),%edx
801042d3:	89 50 04             	mov    %edx,0x4(%eax)
801042d6:	83 7d f4 00          	cmpl   $0x0,-0xc(%ebp)
801042da:	74 0b                	je     801042e7 <insert_segment+0xb7>
801042dc:	8b 45 f4             	mov    -0xc(%ebp),%eax
801042df:	8b 55 ec             	mov    -0x14(%ebp),%edx
801042e2:	89 50 08             	mov    %edx,0x8(%eax)
801042e5:	eb 08                	jmp    801042ef <insert_segment+0xbf>
801042e7:	8b 45 08             	mov    0x8(%ebp),%eax
801042ea:	8b 55 ec             	mov    -0x14(%ebp),%edx
801042ed:	89 10                	mov    %edx,(%eax)
801042ef:	8b 45 ec             	mov    -0x14(%ebp),%eax
801042f2:	8b 55 f0             	mov    -0x10(%ebp),%edx
801042f5:	89 50 08             	mov    %edx,0x8(%eax)
801042f8:	b8 00 00 00 00       	mov    $0x0,%eax
801042fd:	c9                   	leave  
801042fe:	c3                   	ret    

801042ff <destroy_segment_list>:
801042ff:	55                   	push   %ebp
80104300:	89 e5                	mov    %esp,%ebp
80104302:	83 ec 18             	sub    $0x18,%esp
80104305:	8b 45 08             	mov    0x8(%ebp),%eax
80104308:	8b 00                	mov    (%eax),%eax
8010430a:	89 45 f4             	mov    %eax,-0xc(%ebp)
8010430d:	eb 22                	jmp    80104331 <destroy_segment_list+0x32>
8010430f:	8b 45 f4             	mov    -0xc(%ebp),%eax
80104312:	8b 40 08             	mov    0x8(%eax),%eax
80104315:	89 45 f0             	mov    %eax,-0x10(%ebp)
80104318:	83 ec 08             	sub    $0x8,%esp
8010431b:	68 00 10 00 00       	push   $0x1000
80104320:	ff 75 f4             	pushl  -0xc(%ebp)
80104323:	e8 89 f5 ff ff       	call   801038b1 <kfree>
80104328:	83 c4 10             	add    $0x10,%esp
8010432b:	8b 45 f0             	mov    -0x10(%ebp),%eax
8010432e:	89 45 f4             	mov    %eax,-0xc(%ebp)
80104331:	83 7d f4 00          	cmpl   $0x0,-0xc(%ebp)
80104335:	75 d8                	jne    8010430f <destroy_segment_list+0x10>
80104337:	8b 45 08             	mov    0x8(%ebp),%eax
8010433a:	c7 00 00 00 00 00    	movl   $0x0,(%eax)
80104340:	90                   	nop
80104341:	c9                   	leave  
80104342:	c3                   	ret    

80104343 <dump_segment_list>:
80104343:	55                   	push   %ebp
80104344:	89 e5                	mov    %esp,%ebp
80104346:	83 ec 18             	sub    $0x18,%esp
80104349:	83 ec 0c             	sub    $0xc,%esp
8010434c:	68 69 57 10 80       	push   $0x80105769
80104351:	e8 db de ff ff       	call   80102231 <printf_>
80104356:	83 c4 10             	add    $0x10,%esp
80104359:	8b 45 08             	mov    0x8(%ebp),%eax
8010435c:	8b 00                	mov    (%eax),%eax
8010435e:	89 45 f4             	mov    %eax,-0xc(%ebp)
80104361:	eb 26                	jmp    80104389 <dump_segment_list+0x46>
80104363:	8b 45 f4             	mov    -0xc(%ebp),%eax
80104366:	8b 50 04             	mov    0x4(%eax),%edx
80104369:	8b 45 f4             	mov    -0xc(%ebp),%eax
8010436c:	8b 00                	mov    (%eax),%eax
8010436e:	83 ec 04             	sub    $0x4,%esp
80104371:	52                   	push   %edx
80104372:	50                   	push   %eax
80104373:	68 84 57 10 80       	push   $0x80105784
80104378:	e8 b4 de ff ff       	call   80102231 <printf_>
8010437d:	83 c4 10             	add    $0x10,%esp
80104380:	8b 45 f4             	mov    -0xc(%ebp),%eax
80104383:	8b 40 08             	mov    0x8(%eax),%eax
80104386:	89 45 f4             	mov    %eax,-0xc(%ebp)
80104389:	83 7d f4 00          	cmpl   $0x0,-0xc(%ebp)
8010438d:	75 d4                	jne    80104363 <dump_segment_list+0x20>
8010438f:	83 ec 0c             	sub    $0xc,%esp
80104392:	68 91 57 10 80       	push   $0x80105791
80104397:	e8 95 de ff ff       	call   80102231 <printf_>
8010439c:	83 c4 10             	add    $0x10,%esp
8010439f:	90                   	nop
801043a0:	c9                   	leave  
801043a1:	c3                   	ret    

801043a2 <find_segment>:
801043a2:	55                   	push   %ebp
801043a3:	89 e5                	mov    %esp,%ebp
801043a5:	83 ec 10             	sub    $0x10,%esp
801043a8:	c7 45 fc 00 00 00 00 	movl   $0x0,-0x4(%ebp)
801043af:	8b 45 0c             	mov    0xc(%ebp),%eax
801043b2:	05 ff 0f 00 00       	add    $0xfff,%eax
801043b7:	25 00 f0 ff ff       	and    $0xfffff000,%eax
801043bc:	89 45 0c             	mov    %eax,0xc(%ebp)
801043bf:	8b 45 08             	mov    0x8(%ebp),%eax
801043c2:	8b 00                	mov    (%eax),%eax
801043c4:	89 45 f8             	mov    %eax,-0x8(%ebp)
801043c7:	eb 28                	jmp    801043f1 <find_segment+0x4f>
801043c9:	8b 45 f8             	mov    -0x8(%ebp),%eax
801043cc:	8b 00                	mov    (%eax),%eax
801043ce:	8b 4d fc             	mov    -0x4(%ebp),%ecx
801043d1:	8b 55 0c             	mov    0xc(%ebp),%edx
801043d4:	01 ca                	add    %ecx,%edx
801043d6:	39 d0                	cmp    %edx,%eax
801043d8:	72 05                	jb     801043df <find_segment+0x3d>
801043da:	8b 45 fc             	mov    -0x4(%ebp),%eax
801043dd:	eb 33                	jmp    80104412 <find_segment+0x70>
801043df:	8b 45 f8             	mov    -0x8(%ebp),%eax
801043e2:	8b 40 04             	mov    0x4(%eax),%eax
801043e5:	89 45 fc             	mov    %eax,-0x4(%ebp)
801043e8:	8b 45 f8             	mov    -0x8(%ebp),%eax
801043eb:	8b 40 08             	mov    0x8(%eax),%eax
801043ee:	89 45 f8             	mov    %eax,-0x8(%ebp)
801043f1:	83 7d f8 00          	cmpl   $0x0,-0x8(%ebp)
801043f5:	75 d2                	jne    801043c9 <find_segment+0x27>
801043f7:	8b 55 fc             	mov    -0x4(%ebp),%edx
801043fa:	8b 45 0c             	mov    0xc(%ebp),%eax
801043fd:	01 d0                	add    %edx,%eax
801043ff:	ba 00 f0 ff 7f       	mov    $0x7ffff000,%edx
80104404:	39 d0                	cmp    %edx,%eax
80104406:	76 07                	jbe    8010440f <find_segment+0x6d>
80104408:	c7 45 fc ff ff ff ff 	movl   $0xffffffff,-0x4(%ebp)
8010440f:	8b 45 fc             	mov    -0x4(%ebp),%eax
80104412:	c9                   	leave  
80104413:	c3                   	ret    

80104414 <task_init>:
80104414:	55                   	push   %ebp
80104415:	89 e5                	mov    %esp,%ebp
80104417:	90                   	nop
80104418:	5d                   	pop    %ebp
80104419:	c3                   	ret    

8010441a <task_setup>:
8010441a:	55                   	push   %ebp
8010441b:	89 e5                	mov    %esp,%ebp
8010441d:	83 ec 18             	sub    $0x18,%esp
80104420:	8b 55 08             	mov    0x8(%ebp),%edx
80104423:	89 d0                	mov    %edx,%eax
80104425:	c1 e0 03             	shl    $0x3,%eax
80104428:	01 d0                	add    %edx,%eax
8010442a:	c1 e0 03             	shl    $0x3,%eax
8010442d:	05 40 c0 11 80       	add    $0x8011c040,%eax
80104432:	89 45 f4             	mov    %eax,-0xc(%ebp)
80104435:	8b 45 f4             	mov    -0xc(%ebp),%eax
80104438:	8b 55 08             	mov    0x8(%ebp),%edx
8010443b:	89 10                	mov    %edx,(%eax)
8010443d:	8b 45 f4             	mov    -0xc(%ebp),%eax
80104440:	c7 40 38 ff ff ff ff 	movl   $0xffffffff,0x38(%eax)
80104447:	8b 45 f4             	mov    -0xc(%ebp),%eax
8010444a:	c7 40 34 ff ff ff ff 	movl   $0xffffffff,0x34(%eax)
80104451:	8b 45 f4             	mov    -0xc(%ebp),%eax
80104454:	c7 40 04 01 00 00 00 	movl   $0x1,0x4(%eax)
8010445b:	83 ec 0c             	sub    $0xc,%esp
8010445e:	68 00 10 00 00       	push   $0x1000
80104463:	e8 ac f3 ff ff       	call   80103814 <kalloc>
80104468:	83 c4 10             	add    $0x10,%esp
8010446b:	8b 55 f4             	mov    -0xc(%ebp),%edx
8010446e:	89 42 2c             	mov    %eax,0x2c(%edx)
80104471:	8b 45 f4             	mov    -0xc(%ebp),%eax
80104474:	8b 40 2c             	mov    0x2c(%eax),%eax
80104477:	85 c0                	test   %eax,%eax
80104479:	75 0a                	jne    80104485 <task_setup+0x6b>
8010447b:	b8 fe ff ff ff       	mov    $0xfffffffe,%eax
80104480:	e9 7c 01 00 00       	jmp    80104601 <task_setup+0x1e7>
80104485:	8b 45 f4             	mov    -0xc(%ebp),%eax
80104488:	8b 40 2c             	mov    0x2c(%eax),%eax
8010448b:	83 ec 04             	sub    $0x4,%esp
8010448e:	68 00 10 00 00       	push   $0x1000
80104493:	6a 00                	push   $0x0
80104495:	50                   	push   %eax
80104496:	e8 bb e7 ff ff       	call   80102c56 <memset>
8010449b:	83 c4 10             	add    $0x10,%esp
8010449e:	e8 69 fd ff ff       	call   8010420c <read_cr3>
801044a3:	83 ec 0c             	sub    $0xc,%esp
801044a6:	50                   	push   %eax
801044a7:	e8 6e f2 ff ff       	call   8010371a <phys2virt>
801044ac:	83 c4 10             	add    $0x10,%esp
801044af:	8d 90 00 08 00 00    	lea    0x800(%eax),%edx
801044b5:	8b 45 f4             	mov    -0xc(%ebp),%eax
801044b8:	8b 40 2c             	mov    0x2c(%eax),%eax
801044bb:	05 00 08 00 00       	add    $0x800,%eax
801044c0:	83 ec 04             	sub    $0x4,%esp
801044c3:	68 00 08 00 00       	push   $0x800
801044c8:	52                   	push   %edx
801044c9:	50                   	push   %eax
801044ca:	e8 d7 e6 ff ff       	call   80102ba6 <memcpy>
801044cf:	83 c4 10             	add    $0x10,%esp
801044d2:	8b 45 f4             	mov    -0xc(%ebp),%eax
801044d5:	c7 40 28 00 00 00 00 	movl   $0x0,0x28(%eax)
801044dc:	8b 45 f4             	mov    -0xc(%ebp),%eax
801044df:	c7 40 44 ff ff ff ff 	movl   $0xffffffff,0x44(%eax)
801044e6:	83 ec 0c             	sub    $0xc,%esp
801044e9:	68 00 10 00 00       	push   $0x1000
801044ee:	e8 21 f3 ff ff       	call   80103814 <kalloc>
801044f3:	83 c4 10             	add    $0x10,%esp
801044f6:	8b 55 f4             	mov    -0xc(%ebp),%edx
801044f9:	89 42 20             	mov    %eax,0x20(%edx)
801044fc:	8b 45 f4             	mov    -0xc(%ebp),%eax
801044ff:	8b 40 20             	mov    0x20(%eax),%eax
80104502:	83 ec 0c             	sub    $0xc,%esp
80104505:	50                   	push   %eax
80104506:	e8 00 f2 ff ff       	call   8010370b <virt2phys>
8010450b:	83 c4 10             	add    $0x10,%esp
8010450e:	ba 00 f0 ff 7f       	mov    $0x7ffff000,%edx
80104513:	83 ec 0c             	sub    $0xc,%esp
80104516:	6a 02                	push   $0x2
80104518:	68 00 10 00 00       	push   $0x1000
8010451d:	50                   	push   %eax
8010451e:	52                   	push   %edx
8010451f:	ff 75 f4             	pushl  -0xc(%ebp)
80104522:	e8 7e f6 ff ff       	call   80103ba5 <mmap_task>
80104527:	83 c4 20             	add    $0x20,%esp
8010452a:	8b 55 f4             	mov    -0xc(%ebp),%edx
8010452d:	89 42 24             	mov    %eax,0x24(%edx)
80104530:	8b 45 f4             	mov    -0xc(%ebp),%eax
80104533:	8b 40 20             	mov    0x20(%eax),%eax
80104536:	05 00 10 00 00       	add    $0x1000,%eax
8010453b:	89 45 f0             	mov    %eax,-0x10(%ebp)
8010453e:	83 6d f0 3c          	subl   $0x3c,-0x10(%ebp)
80104542:	8b 45 f4             	mov    -0xc(%ebp),%eax
80104545:	8b 55 f0             	mov    -0x10(%ebp),%edx
80104548:	89 50 1c             	mov    %edx,0x1c(%eax)
8010454b:	8b 45 f4             	mov    -0xc(%ebp),%eax
8010454e:	8b 40 1c             	mov    0x1c(%eax),%eax
80104551:	83 ec 04             	sub    $0x4,%esp
80104554:	6a 3c                	push   $0x3c
80104556:	6a 00                	push   $0x0
80104558:	50                   	push   %eax
80104559:	e8 f8 e6 ff ff       	call   80102c56 <memset>
8010455e:	83 c4 10             	add    $0x10,%esp
80104561:	8b 45 f4             	mov    -0xc(%ebp),%eax
80104564:	83 c0 08             	add    $0x8,%eax
80104567:	83 ec 04             	sub    $0x4,%esp
8010456a:	6a 14                	push   $0x14
8010456c:	6a 00                	push   $0x0
8010456e:	50                   	push   %eax
8010456f:	e8 e2 e6 ff ff       	call   80102c56 <memset>
80104574:	83 c4 10             	add    $0x10,%esp
80104577:	8b 45 f4             	mov    -0xc(%ebp),%eax
8010457a:	8b 40 1c             	mov    0x1c(%eax),%eax
8010457d:	c7 40 2c 1b 00 00 00 	movl   $0x1b,0x2c(%eax)
80104584:	8b 45 f4             	mov    -0xc(%ebp),%eax
80104587:	8b 40 1c             	mov    0x1c(%eax),%eax
8010458a:	66 c7 40 22 23 00    	movw   $0x23,0x22(%eax)
80104590:	8b 45 f4             	mov    -0xc(%ebp),%eax
80104593:	8b 40 1c             	mov    0x1c(%eax),%eax
80104596:	66 c7 40 20 23 00    	movw   $0x23,0x20(%eax)
8010459c:	8b 45 f4             	mov    -0xc(%ebp),%eax
8010459f:	8b 40 1c             	mov    0x1c(%eax),%eax
801045a2:	66 c7 40 1e 23 00    	movw   $0x23,0x1e(%eax)
